;
; File generated by cc65 v 2.17 - Git 19925800
;
	.fopt		compiler,"cc65 v 2.17 - Git 19925800"
	.setcpu		"6502"
	.smart		on
	.autoimport	on
	.case		on
	.debuginfo	on
	.importzp	sp, sreg, regsave, regbank
	.importzp	tmp1, tmp2, tmp3, tmp4, ptr1, ptr2, ptr3, ptr4
	.macpack	longbranch
	.dbg		file, "nachtm.c", 69766, 1554126600
	.dbg		file, "/opt/cc-6502/share/cc65/include/stdio.h", 6189, 1554133537
	.dbg		file, "/opt/cc-6502/share/cc65/include/stddef.h", 3057, 1554133537
	.dbg		file, "/opt/cc-6502/share/cc65/include/stdarg.h", 2913, 1554133537
	.dbg		file, "/opt/cc-6502/share/cc65/include/string.h", 5104, 1554133537
	.dbg		file, "/opt/cc-6502/share/cc65/include/time.h", 5941, 1554133537
	.dbg		file, "/opt/cc-6502/share/cc65/include/conio.h", 8941, 1554133537
	.dbg		file, "/opt/cc-6502/share/cc65/include/target.h", 3126, 1554133537
	.dbg		file, "/opt/cc-6502/share/cc65/include/cbm.h", 11354, 1554133537
	.dbg		file, "/opt/cc-6502/share/cc65/include/c64.h", 6969, 1554133537
	.dbg		file, "/opt/cc-6502/share/cc65/include/_vic2.h", 10835, 1554133537
	.dbg		file, "/opt/cc-6502/share/cc65/include/_sid.h", 3626, 1554133537
	.dbg		file, "/opt/cc-6502/share/cc65/include/_6526.h", 3962, 1554133537
	.dbg		file, "/opt/cc-6502/share/cc65/include/cbm_filetype.h", 4949, 1554133537
	.dbg		file, "/opt/cc-6502/share/cc65/include/dbg.h", 5775, 1554133537
	.forceimport	__STARTUP__
	.dbg		sym, "strlen", "00", extern, "_strlen"
	.dbg		sym, "clock", "00", extern, "_clock"
	.dbg		sym, "clrscr", "00", extern, "_clrscr"
	.dbg		sym, "kbhit", "00", extern, "_kbhit"
	.dbg		sym, "gotoxy", "00", extern, "_gotoxy"
	.dbg		sym, "cputc", "00", extern, "_cputc"
	.dbg		sym, "cputcxy", "00", extern, "_cputcxy"
	.dbg		sym, "cputsxy", "00", extern, "_cputsxy"
	.dbg		sym, "cprintf", "00", extern, "_cprintf"
	.dbg		sym, "cgetc", "00", extern, "_cgetc"
	.dbg		sym, "cursor", "00", extern, "_cursor"
	.dbg		sym, "textcolor", "00", extern, "_textcolor"
	.dbg		sym, "bgcolor", "00", extern, "_bgcolor"
	.dbg		sym, "bordercolor", "00", extern, "_bordercolor"
	.dbg		sym, "chline", "00", extern, "_chline"
	.dbg		sym, "cvlinexy", "00", extern, "_cvlinexy"
	.dbg		sym, "screensize", "00", extern, "_screensize"
	.dbg		sym, "DbgInit", "00", extern, "_DbgInit"
	.import		_strlen
	.import		_clock
	.import		_clrscr
	.import		_kbhit
	.import		_gotoxy
	.import		_cputc
	.import		_cputcxy
	.import		_cputsxy
	.import		_cprintf
	.import		_cgetc
	.import		_cursor
	.import		_textcolor
	.import		_bgcolor
	.import		_bordercolor
	.import		_chline
	.import		_cvlinexy
	.import		_screensize
	.import		_DbgInit
	.export		_main

.segment	"DATA"

_Voice1:
	.word	$5708
	.word	$8004
	.word	$5204
	.word	$5708
	.word	$8004
	.word	$5204
	.word	$5704
	.word	$5204
	.word	$5704
	.word	$5B04
	.word	$6208
	.word	$8008
	.word	$6008
	.word	$8004
	.word	$5904
	.word	$6008
	.word	$8004
	.word	$5904
	.word	$6004
	.word	$5904
	.word	$5604
	.word	$5904
	.word	$5208
	.word	$8008
	.word	$5704
	.word	$8004
	.word	$570C
	.word	$5B01
	.word	$5B01
	.word	$5B01
	.word	$5B01
	.word	$5904
	.word	$5704
	.word	$5704
	.word	$5604
	.word	$560C
	.word	$5901
	.word	$5901
	.word	$5901
	.word	$5901
	.word	$6004
	.word	$5604
	.word	$5901
	.word	$5901
	.word	$5901
	.word	$5901
	.word	$5704
	.word	$570C
	.word	$5B01
	.word	$5B01
	.word	$5B01
	.word	$5B01
	.word	$5904
	.word	$5704
	.word	$5701
	.word	$5701
	.word	$5701
	.word	$5701
	.word	$5604
	.word	$560C
	.word	$5901
	.word	$5901
	.word	$5901
	.word	$5901
	.word	$6004
	.word	$5604
	.word	$5704
	.word	$5704
	.word	$5601
	.word	$5601
	.word	$5601
	.word	$5601
	.word	$5401
	.word	$5401
	.word	$5602
	.word	$5704
	.word	$5704
	.word	$5901
	.word	$5901
	.word	$5901
	.word	$5901
	.word	$5701
	.word	$5701
	.word	$5902
	.word	$5B04
	.word	$5B04
	.word	$6001
	.word	$6001
	.word	$6001
	.word	$6001
	.word	$5B01
	.word	$5B01
	.word	$6001
	.word	$6001
	.word	$6208
	.word	$8008
	.word	$5201
	.word	$5201
	.word	$5201
	.word	$5201
	.word	$5201
	.word	$5201
	.word	$5201
	.word	$5201
	.word	$5201
	.word	$5201
	.word	$5201
	.word	$5201
	.word	$5201
	.word	$5201
	.word	$5201
	.word	$5201
	.word	$5410
	.word	$5008
	.word	$5008
	.word	$4B08
	.word	$4B08
	.word	$4908
	.word	$4908
	.word	$4701
	.word	$4701
	.word	$4701
	.word	$4701
	.word	$4604
	.word	$4404
	.word	$4604
	.word	$4704
	.word	$8004
	.word	$4904
	.word	$8004
	.word	$4B04
	.word	$800C
	.word	$5201
	.word	$5201
	.word	$5201
	.word	$5201
	.word	$5201
	.word	$5201
	.word	$5201
	.word	$5201
	.word	$5201
	.word	$5201
	.word	$5201
	.word	$5201
	.word	$5201
	.word	$5201
	.word	$5201
	.word	$5201
	.word	$5410
	.word	$5201
	.word	$5201
	.word	$5201
	.word	$5201
	.word	$5004
	.word	$5004
	.word	$5004
	.word	$5001
	.word	$5001
	.word	$5001
	.word	$5001
	.word	$4B04
	.word	$4B04
	.word	$4B04
	.word	$4B01
	.word	$4B01
	.word	$4B01
	.word	$4B01
	.word	$4904
	.word	$4904
	.word	$4904
	.word	$4701
	.word	$4701
	.word	$4701
	.word	$4701
	.word	$4601
	.word	$4601
	.word	$4601
	.word	$4601
	.word	$4401
	.word	$4401
	.word	$4401
	.word	$4401
	.word	$4604
	.word	$4701
	.word	$4701
	.word	$4701
	.word	$4701
	.word	$4701
	.word	$4701
	.word	$4701
	.word	$4701
	.word	$4701
	.word	$4701
	.word	$4701
	.word	$4701
	.word	$4701
	.word	$4701
	.word	$4701
	.word	$4701
	.word	$4704
	.word	$4701
	.word	$4701
	.word	$4601
	.word	$4701
	.word	$4901
	.word	$4901
	.word	$4901
	.word	$4901
	.word	$4604
	.word	$4B01
	.word	$4B01
	.word	$4B01
	.word	$4B01
	.word	$4B01
	.word	$4B01
	.word	$4B01
	.word	$4B01
	.word	$4B01
	.word	$4B01
	.word	$4B01
	.word	$4B01
	.word	$4B01
	.word	$4B01
	.word	$4B01
	.word	$4B01
	.word	$4B04
	.word	$4B01
	.word	$4B01
	.word	$4901
	.word	$4B01
	.word	$5001
	.word	$5001
	.word	$5001
	.word	$5001
	.word	$4904
	.word	$5210
	.word	$5408
	.word	$5608
	.word	$5708
	.word	$5908
	.word	$5B08
	.word	$6108
	.word	$6201
	.word	$6201
	.word	$6201
	.word	$6201
	.word	$6201
	.word	$6201
	.word	$6201
	.word	$6201
	.word	$6201
	.word	$6201
	.word	$6201
	.word	$6201
	.word	$5904
	.word	$6101
	.word	$6101
	.word	$6101
	.word	$6101
	.word	$6101
	.word	$6101
	.word	$5902
	.word	$6101
	.word	$6101
	.word	$6101
	.word	$6101
	.word	$6101
	.word	$6101
	.word	$5902
	.word	$6201
	.word	$6201
	.word	$6201
	.word	$6201
	.word	$6201
	.word	$6201
	.word	$6201
	.word	$6201
	.word	$6201
	.word	$6201
	.word	$6201
	.word	$6201
	.word	$5904
	.word	$6101
	.word	$6101
	.word	$6101
	.word	$6101
	.word	$6101
	.word	$6101
	.word	$5902
	.word	$6101
	.word	$6101
	.word	$6101
	.word	$6101
	.word	$6101
	.word	$6101
	.word	$5902
	.word	$6204
	.word	$6208
	.word	$6208
	.word	$6208
	.word	$6201
	.word	$6201
	.word	$6201
	.word	$6201
	.word	$6204
	.word	$6208
	.word	$6208
	.word	$6208
	.word	$6204
	.word	$6104
	.word	$5904
	.word	$6204
	.word	$5904
	.word	$6004
	.word	$5904
	.word	$6204
	.word	$5904
	.word	$6104
	.word	$4904
	.word	$4904
	.word	$4904
	.word	$4908
	.word	$8008
	.word	$590A
	.word	$5702
	.word	$5602
	.word	$5402
	.word	$5204
	.word	$8004
	.word	$5B04
	.word	$8004
	.word	$5704
	.word	$8004
	.word	$5404
	.word	$8004
	.word	$5B04
	.word	$800C
	.word	$5601
	.word	$5601
	.word	$5601
	.word	$5601
	.word	$5601
	.word	$5601
	.word	$5601
	.word	$5601
	.word	$5601
	.word	$5601
	.word	$5401
	.word	$5401
	.word	$5201
	.word	$5201
	.word	$5101
	.word	$5101
	.word	$4B04
	.word	$8004
	.word	$5704
	.word	$8004
	.word	$5601
	.word	$5601
	.word	$5601
	.word	$5601
	.word	$5601
	.word	$5601
	.word	$5601
	.word	$5601
	.word	$5601
	.word	$5601
	.word	$5601
	.word	$5601
	.word	$5601
	.word	$5601
	.word	$5601
	.word	$5601
	.word	$5408
	.word	$8008
	.word	$5901
	.word	$5901
	.word	$5901
	.word	$5901
	.word	$5901
	.word	$5901
	.word	$5901
	.word	$5901
	.word	$5901
	.word	$5901
	.word	$5701
	.word	$5701
	.word	$5601
	.word	$5601
	.word	$5401
	.word	$5401
	.word	$5204
	.word	$8004
	.word	$5B04
	.word	$8004
	.word	$5704
	.word	$8004
	.word	$5404
	.word	$8004
	.word	$5908
	.word	$8004
	.word	$5704
	.word	$6104
	.word	$6204
	.word	$8004
	.word	$5B04
	.word	$5B01
	.word	$5B01
	.word	$5B01
	.word	$5B01
	.word	$5904
	.word	$8004
	.word	$5104
	.word	$5208
	.word	$8004
	.word	$5904
	.word	$6201
	.word	$6201
	.word	$6201
	.word	$6201
	.word	$6101
	.word	$6101
	.word	$6101
	.word	$6101
	.word	$5B01
	.word	$5B01
	.word	$5B01
	.word	$5B01
	.word	$5904
	.word	$5B01
	.word	$5B01
	.word	$5B01
	.word	$5B01
	.word	$5904
	.word	$8004
	.word	$5904
	.word	$5904
	.word	$5904
	.word	$5904
	.word	$5904
	.word	$5B01
	.word	$5B01
	.word	$5B01
	.word	$5B01
	.word	$5904
	.word	$8004
	.word	$5904
	.word	$6204
	.word	$6104
	.word	$5B04
	.word	$5904
	.word	$5B01
	.word	$5B01
	.word	$5B01
	.word	$5B01
	.word	$5904
	.word	$8004
	.word	$5904
	.word	$5904
	.word	$5904
	.word	$5904
	.word	$5904
	.word	$5B01
	.word	$5B01
	.word	$5B01
	.word	$5B01
	.word	$5904
	.word	$8008
	.word	$5B0A
	.word	$5901
	.word	$5901
	.word	$5701
	.word	$5701
	.word	$5601
	.word	$5601
	.word	$5708
	.word	$8008
	.word	$590A
	.word	$5701
	.word	$5701
	.word	$5601
	.word	$5601
	.word	$5401
	.word	$5401
	.word	$5608
	.word	$8008
	.word	$5B01
	.word	$5B01
	.word	$5B01
	.word	$5B01
	.word	$6101
	.word	$6101
	.word	$6201
	.word	$6201
	.word	$6104
	.word	$5B04
	.word	$5B01
	.word	$5B01
	.word	$5B01
	.word	$5B01
	.word	$5904
	.word	$5604
	.word	$5904
	.word	$5901
	.word	$5901
	.word	$5901
	.word	$5901
	.word	$5704
	.word	$5604
	.word	$5404
	.word	$5208
	.word	$8004
	.word	$5904
	.word	$6201
	.word	$6201
	.word	$6201
	.word	$6201
	.word	$6101
	.word	$6101
	.word	$6101
	.word	$6101
	.word	$5B01
	.word	$5B01
	.word	$5B01
	.word	$5B01
	.word	$5904
	.word	$5B01
	.word	$5B01
	.word	$5B01
	.word	$5B01
	.word	$5904
	.word	$8004
	.word	$5904
	.word	$5904
	.word	$5904
	.word	$5904
	.word	$5904
	.word	$5B01
	.word	$5B01
	.word	$5B01
	.word	$5B01
	.word	$5904
	.word	$8004
	.word	$5904
	.word	$6201
	.word	$6201
	.word	$6201
	.word	$6201
	.word	$6101
	.word	$6101
	.word	$6101
	.word	$6101
	.word	$5B01
	.word	$5B01
	.word	$5B01
	.word	$5B01
	.word	$5904
	.word	$5B01
	.word	$5B01
	.word	$5B01
	.word	$5B01
	.word	$5904
	.word	$8004
	.word	$5904
	.word	$5904
	.word	$5904
	.word	$5904
	.word	$5904
	.word	$5B01
	.word	$5B01
	.word	$5B01
	.word	$5B01
	.word	$5904
	.word	$8008
	.word	$5B0A
	.word	$5901
	.word	$5901
	.word	$5701
	.word	$5701
	.word	$5601
	.word	$5601
	.word	$5708
	.word	$8008
	.word	$590A
	.word	$5701
	.word	$5701
	.word	$5601
	.word	$5601
	.word	$5401
	.word	$5401
	.word	$5608
	.word	$8008
	.word	$5B01
	.word	$5B01
	.word	$5B01
	.word	$5B01
	.word	$6101
	.word	$6101
	.word	$6201
	.word	$6201
	.word	$6104
	.word	$5B04
	.word	$5B01
	.word	$5B01
	.word	$5B01
	.word	$5B01
	.word	$5904
	.word	$5604
	.word	$5904
	.word	$5901
	.word	$5901
	.word	$5901
	.word	$5901
	.word	$5704
	.word	$5604
	.word	$5404
	.word	$5204
	.word	$4904
	.word	$4B04
	.word	$5104
	.word	$5204
	.word	$5204
	.word	$5401
	.word	$5401
	.word	$5401
	.word	$5401
	.word	$5201
	.word	$5201
	.word	$5401
	.word	$5401
	.word	$5604
	.word	$5104
	.word	$5204
	.word	$5404
	.word	$5604
	.word	$5604
	.word	$5701
	.word	$5701
	.word	$5701
	.word	$5701
	.word	$5601
	.word	$5601
	.word	$5701
	.word	$5701
	.word	$5904
	.word	$5904
	.word	$5A04
	.word	$5802
	.word	$5A02
	.word	$5B08
	.word	$8008
	.word	$4B01
	.word	$4B01
	.word	$4B01
	.word	$4B01
	.word	$4B01
	.word	$4B01
	.word	$4B01
	.word	$4B01
	.word	$4B01
	.word	$4B01
	.word	$4B01
	.word	$4B01
	.word	$5404
	.word	$5201
	.word	$5201
	.word	$5201
	.word	$5201
	.word	$5101
	.word	$5101
	.word	$5101
	.word	$5101
	.word	$5B01
	.word	$5B01
	.word	$5B01
	.word	$5B01
	.word	$5901
	.word	$5901
	.word	$5901
	.word	$5901
	.word	$6204
	.word	$8004
	.word	$6604
	.word	$8004
	.word	$6204
	.word	$800C
	.word	$5708
	.word	$8004
	.word	$5204
	.word	$5708
	.word	$8004
	.word	$5204
	.word	$5704
	.word	$5204
	.word	$5704
	.word	$5B04
	.word	$6208
	.word	$8008
	.word	$6008
	.word	$8004
	.word	$5904
	.word	$6008
	.word	$8004
	.word	$5904
	.word	$6004
	.word	$5904
	.word	$5604
	.word	$5904
	.word	$5208
	.word	$8008
	.word	$5704
	.word	$8004
	.word	$570C
	.word	$5B01
	.word	$5B01
	.word	$5B01
	.word	$5B01
	.word	$5904
	.word	$5704
	.word	$5704
	.word	$5604
	.word	$560C
	.word	$5901
	.word	$5901
	.word	$5901
	.word	$5901
	.word	$6004
	.word	$5604
	.word	$5901
	.word	$5901
	.word	$5901
	.word	$5901
	.word	$5704
	.word	$570C
	.word	$5B01
	.word	$5B01
	.word	$5B01
	.word	$5B01
	.word	$5904
	.word	$5704
	.word	$5701
	.word	$5701
	.word	$5701
	.word	$5701
	.word	$5604
	.word	$560C
	.word	$5901
	.word	$5901
	.word	$5901
	.word	$5901
	.word	$6004
	.word	$5604
	.word	$5704
	.word	$5704
	.word	$5601
	.word	$5601
	.word	$5601
	.word	$5601
	.word	$5401
	.word	$5401
	.word	$5602
	.word	$5704
	.word	$5704
	.word	$5901
	.word	$5901
	.word	$5901
	.word	$5901
	.word	$5701
	.word	$5701
	.word	$5902
	.word	$5B04
	.word	$5B04
	.word	$6001
	.word	$6001
	.word	$6001
	.word	$6001
	.word	$5B01
	.word	$5B01
	.word	$6001
	.word	$6001
	.word	$6208
	.word	$8008
	.word	$5201
	.word	$5201
	.word	$5201
	.word	$5201
	.word	$5201
	.word	$5201
	.word	$5201
	.word	$5201
	.word	$5201
	.word	$5201
	.word	$5201
	.word	$5201
	.word	$5201
	.word	$5201
	.word	$5201
	.word	$5201
	.word	$5410
	.word	$5008
	.word	$5008
	.word	$4B08
	.word	$4B08
	.word	$4908
	.word	$4908
	.word	$4701
	.word	$4701
	.word	$4701
	.word	$4701
	.word	$4604
	.word	$4404
	.word	$4604
	.word	$4704
	.word	$8004
	.word	$4904
	.word	$8004
	.word	$4B04
	.word	$800C
	.word	$5201
	.word	$5201
	.word	$5201
	.word	$5201
	.word	$5201
	.word	$5201
	.word	$5201
	.word	$5201
	.word	$5201
	.word	$5201
	.word	$5201
	.word	$5201
	.word	$5201
	.word	$5201
	.word	$5201
	.word	$5201
	.word	$5410
	.word	$5201
	.word	$5201
	.word	$5201
	.word	$5201
	.word	$5004
	.word	$5004
	.word	$5004
	.word	$5001
	.word	$5001
	.word	$5001
	.word	$5001
	.word	$4B04
	.word	$4B04
	.word	$4B04
	.word	$4B01
	.word	$4B01
	.word	$4B01
	.word	$4B01
	.word	$4904
	.word	$4904
	.word	$4904
	.word	$4701
	.word	$4701
	.word	$4701
	.word	$4701
	.word	$4601
	.word	$4601
	.word	$4601
	.word	$4601
	.word	$4401
	.word	$4401
	.word	$4401
	.word	$4401
	.word	$4604
	.word	$4701
	.word	$4701
	.word	$4701
	.word	$4701
	.word	$4701
	.word	$4701
	.word	$4701
	.word	$4701
	.word	$4701
	.word	$4701
	.word	$4701
	.word	$4701
	.word	$4701
	.word	$4701
	.word	$4701
	.word	$4701
	.word	$4704
	.word	$4701
	.word	$4701
	.word	$4601
	.word	$4701
	.word	$4901
	.word	$4901
	.word	$4901
	.word	$4901
	.word	$4604
	.word	$4B01
	.word	$4B01
	.word	$4B01
	.word	$4B01
	.word	$4B01
	.word	$4B01
	.word	$4B01
	.word	$4B01
	.word	$4B01
	.word	$4B01
	.word	$4B01
	.word	$4B01
	.word	$4B01
	.word	$4B01
	.word	$4B01
	.word	$4B01
	.word	$4B04
	.word	$4B01
	.word	$4B01
	.word	$4901
	.word	$4B01
	.word	$5001
	.word	$5001
	.word	$5001
	.word	$5001
	.word	$4904
	.word	$5210
	.word	$5408
	.word	$5608
	.word	$5708
	.word	$5908
	.word	$5B08
	.word	$6108
	.word	$6201
	.word	$6201
	.word	$6201
	.word	$6201
	.word	$6201
	.word	$6201
	.word	$6201
	.word	$6201
	.word	$6201
	.word	$6201
	.word	$6201
	.word	$6201
	.word	$5904
	.word	$6101
	.word	$6101
	.word	$6101
	.word	$6101
	.word	$6101
	.word	$6101
	.word	$5902
	.word	$6101
	.word	$6101
	.word	$6101
	.word	$6101
	.word	$6101
	.word	$6101
	.word	$5902
	.word	$6201
	.word	$6201
	.word	$6201
	.word	$6201
	.word	$6201
	.word	$6201
	.word	$6201
	.word	$6201
	.word	$6201
	.word	$6201
	.word	$6201
	.word	$6201
	.word	$5904
	.word	$6101
	.word	$6101
	.word	$6101
	.word	$6101
	.word	$6101
	.word	$6101
	.word	$5902
	.word	$6101
	.word	$6101
	.word	$6101
	.word	$6101
	.word	$6101
	.word	$6101
	.word	$5902
	.word	$6204
	.word	$6208
	.word	$6208
	.word	$6208
	.word	$6201
	.word	$6201
	.word	$6201
	.word	$6201
	.word	$6204
	.word	$6208
	.word	$6208
	.word	$6208
	.word	$6204
	.word	$6104
	.word	$5904
	.word	$6204
	.word	$5904
	.word	$6004
	.word	$5904
	.word	$6204
	.word	$5904
	.word	$6104
	.word	$4904
	.word	$4904
	.word	$4904
	.word	$4908
	.word	$8008
	.word	$590A
	.word	$5702
	.word	$5602
	.word	$5402
	.word	$5204
	.word	$8004
	.word	$5B04
	.word	$8004
	.word	$5704
	.word	$8004
	.word	$5404
	.word	$8004
	.word	$5B04
	.word	$800C
	.word	$5601
	.word	$5601
	.word	$5601
	.word	$5601
	.word	$5601
	.word	$5601
	.word	$5601
	.word	$5601
	.word	$5601
	.word	$5601
	.word	$5401
	.word	$5401
	.word	$5201
	.word	$5201
	.word	$5101
	.word	$5101
	.word	$4B04
	.word	$8004
	.word	$5704
	.word	$8004
	.word	$5601
	.word	$5601
	.word	$5601
	.word	$5601
	.word	$5601
	.word	$5601
	.word	$5601
	.word	$5601
	.word	$5601
	.word	$5601
	.word	$5601
	.word	$5601
	.word	$5601
	.word	$5601
	.word	$5601
	.word	$5601
	.word	$5408
	.word	$8008
	.word	$5901
	.word	$5901
	.word	$5901
	.word	$5901
	.word	$5901
	.word	$5901
	.word	$5901
	.word	$5901
	.word	$5901
	.word	$5901
	.word	$5701
	.word	$5701
	.word	$5601
	.word	$5601
	.word	$5401
	.word	$5401
	.word	$5204
	.word	$8004
	.word	$5B04
	.word	$8004
	.word	$5704
	.word	$8004
	.word	$5404
	.word	$8004
	.word	$5908
	.word	$8004
	.word	$5704
	.word	$6104
	.word	$6204
	.word	$8004
	.word	$5B04
	.word	$5B01
	.word	$5B01
	.word	$5B01
	.word	$5B01
	.word	$5904
	.word	$8004
	.word	$5104
	.word	$5208
	.word	$8004
	.word	$5904
	.word	$6201
	.word	$6201
	.word	$6201
	.word	$6201
	.word	$6101
	.word	$6101
	.word	$6101
	.word	$6101
	.word	$5B01
	.word	$5B01
	.word	$5B01
	.word	$5B01
	.word	$5904
	.word	$5B01
	.word	$5B01
	.word	$5B01
	.word	$5B01
	.word	$5904
	.word	$8004
	.word	$5904
	.word	$5904
	.word	$5904
	.word	$5904
	.word	$5904
	.word	$5B01
	.word	$5B01
	.word	$5B01
	.word	$5B01
	.word	$5904
	.word	$8004
	.word	$5904
	.word	$6204
	.word	$6104
	.word	$5B04
	.word	$5904
	.word	$5B01
	.word	$5B01
	.word	$5B01
	.word	$5B01
	.word	$5904
	.word	$8004
	.word	$5904
	.word	$5904
	.word	$5904
	.word	$5904
	.word	$5904
	.word	$5B01
	.word	$5B01
	.word	$5B01
	.word	$5B01
	.word	$5904
	.word	$8008
	.word	$5B0A
	.word	$5901
	.word	$5901
	.word	$5701
	.word	$5701
	.word	$5601
	.word	$5601
	.word	$5708
	.word	$8008
	.word	$590A
	.word	$5701
	.word	$5701
	.word	$5601
	.word	$5601
	.word	$5401
	.word	$5401
	.word	$5608
	.word	$8008
	.word	$5B01
	.word	$5B01
	.word	$5B01
	.word	$5B01
	.word	$6101
	.word	$6101
	.word	$6201
	.word	$6201
	.word	$6104
	.word	$5B04
	.word	$5B01
	.word	$5B01
	.word	$5B01
	.word	$5B01
	.word	$5904
	.word	$5604
	.word	$5904
	.word	$5901
	.word	$5901
	.word	$5901
	.word	$5901
	.word	$5704
	.word	$5604
	.word	$5404
	.word	$5208
	.word	$8004
	.word	$5904
	.word	$6201
	.word	$6201
	.word	$6201
	.word	$6201
	.word	$6101
	.word	$6101
	.word	$6101
	.word	$6101
	.word	$5B01
	.word	$5B01
	.word	$5B01
	.word	$5B01
	.word	$5904
	.word	$5B01
	.word	$5B01
	.word	$5B01
	.word	$5B01
	.word	$5904
	.word	$8004
	.word	$5904
	.word	$5904
	.word	$5904
	.word	$5904
	.word	$5904
	.word	$5B01
	.word	$5B01
	.word	$5B01
	.word	$5B01
	.word	$5904
	.word	$8004
	.word	$5904
	.word	$6201
	.word	$6201
	.word	$6201
	.word	$6201
	.word	$6101
	.word	$6101
	.word	$6101
	.word	$6101
	.word	$5B01
	.word	$5B01
	.word	$5B01
	.word	$5B01
	.word	$5904
	.word	$5B01
	.word	$5B01
	.word	$5B01
	.word	$5B01
	.word	$5904
	.word	$8004
	.word	$5904
	.word	$5904
	.word	$5904
	.word	$5904
	.word	$5904
	.word	$5B01
	.word	$5B01
	.word	$5B01
	.word	$5B01
	.word	$5904
	.word	$8008
	.word	$5B0A
	.word	$5901
	.word	$5901
	.word	$5701
	.word	$5701
	.word	$5601
	.word	$5601
	.word	$5708
	.word	$8008
	.word	$590A
	.word	$5701
	.word	$5701
	.word	$5601
	.word	$5601
	.word	$5401
	.word	$5401
	.word	$5608
	.word	$8008
	.word	$5B01
	.word	$5B01
	.word	$5B01
	.word	$5B01
	.word	$6101
	.word	$6101
	.word	$6201
	.word	$6201
	.word	$6104
	.word	$5B04
	.word	$5B01
	.word	$5B01
	.word	$5B01
	.word	$5B01
	.word	$5904
	.word	$5604
	.word	$5904
	.word	$5901
	.word	$5901
	.word	$5901
	.word	$5901
	.word	$5704
	.word	$5604
	.word	$5404
	.word	$5204
	.word	$4904
	.word	$4B04
	.word	$5104
	.word	$5204
	.word	$5204
	.word	$5401
	.word	$5401
	.word	$5401
	.word	$5401
	.word	$5201
	.word	$5201
	.word	$5401
	.word	$5401
	.word	$5604
	.word	$5104
	.word	$5204
	.word	$5404
	.word	$5604
	.word	$5604
	.word	$5701
	.word	$5701
	.word	$5701
	.word	$5701
	.word	$5601
	.word	$5601
	.word	$5701
	.word	$5701
	.word	$5904
	.word	$5904
	.word	$5A04
	.word	$5802
	.word	$5A02
	.word	$5B08
	.word	$8008
	.word	$4B01
	.word	$4B01
	.word	$4B01
	.word	$4B01
	.word	$4B01
	.word	$4B01
	.word	$4B01
	.word	$4B01
	.word	$4B01
	.word	$4B01
	.word	$4B01
	.word	$4B01
	.word	$5404
	.word	$5201
	.word	$5201
	.word	$5201
	.word	$5201
	.word	$5101
	.word	$5101
	.word	$5101
	.word	$5101
	.word	$5B01
	.word	$5B01
	.word	$5B01
	.word	$5B01
	.word	$5901
	.word	$5901
	.word	$5901
	.word	$5901
	.word	$6204
	.word	$8004
	.word	$6604
	.word	$8004
	.word	$6204
	.word	$800C
	.word	$5208
	.word	$8004
	.word	$4904
	.word	$5208
	.word	$8004
	.word	$4904
	.word	$5204
	.word	$4904
	.word	$5204
	.word	$5604
	.word	$5908
	.word	$8008
	.word	$5908
	.word	$8004
	.word	$5604
	.word	$5908
	.word	$8004
	.word	$5604
	.word	$5904
	.word	$5604
	.word	$5304
	.word	$5604
	.word	$4B08
	.word	$8014
	.word	$5704
	.word	$6001
	.word	$6001
	.word	$6001
	.word	$6001
	.word	$5B01
	.word	$5B01
	.word	$5B01
	.word	$5B01
	.word	$5901
	.word	$5901
	.word	$5901
	.word	$5901
	.word	$5704
	.word	$5901
	.word	$5901
	.word	$5901
	.word	$5901
	.word	$5704
	.word	$8004
	.word	$5704
	.word	$5704
	.word	$5704
	.word	$5704
	.word	$5704
	.word	$5901
	.word	$5901
	.word	$5901
	.word	$5901
	.word	$5704
	.word	$8004
	.word	$5704
	.word	$6001
	.word	$6001
	.word	$6001
	.word	$6001
	.word	$5B01
	.word	$5B01
	.word	$5B01
	.word	$5B01
	.word	$5901
	.word	$5901
	.word	$5901
	.word	$5901
	.word	$5704
	.word	$5901
	.word	$5901
	.word	$5901
	.word	$5901
	.word	$5704
	.word	$8004
	.word	$5704
	.word	$5704
	.word	$5704
	.word	$5704
	.word	$5704
	.word	$5901
	.word	$5901
	.word	$5901
	.word	$5901
	.word	$5704
	.word	$8004
	.word	$5704
	.word	$6001
	.word	$6001
	.word	$6001
	.word	$6001
	.word	$5B01
	.word	$5B01
	.word	$5B01
	.word	$5B01
	.word	$5901
	.word	$5901
	.word	$5901
	.word	$5901
	.word	$5704
	.word	$5901
	.word	$5901
	.word	$5901
	.word	$5901
	.word	$5804
	.word	$8004
	.word	$5804
	.word	$5804
	.word	$5804
	.word	$5804
	.word	$5804
	.word	$5B01
	.word	$5B01
	.word	$5B01
	.word	$5B01
	.word	$5904
	.word	$8004
	.word	$5904
	.word	$6001
	.word	$6001
	.word	$6001
	.word	$6001
	.word	$5A01
	.word	$5A01
	.word	$5A01
	.word	$5A01
	.word	$5901
	.word	$5901
	.word	$5901
	.word	$5901
	.word	$5704
	.word	$5701
	.word	$5701
	.word	$5701
	.word	$5701
	.word	$5604
	.word	$8004
	.word	$5604
	.word	$5604
	.word	$5604
	.word	$5604
	.word	$5604
	.word	$5901
	.word	$5901
	.word	$5901
	.word	$5901
	.word	$5704
	.word	$8004
	.word	$5304
	.word	$5704
	.word	$5504
	.word	$5304
	.word	$5204
	.word	$5201
	.word	$5201
	.word	$5201
	.word	$5201
	.word	$5104
	.word	$8004
	.word	$5104
	.word	$5104
	.word	$5104
	.word	$5104
	.word	$5104
	.word	$5401
	.word	$5401
	.word	$5401
	.word	$5401
	.word	$5204
	.word	$8004
	.word	$4201
	.word	$4201
	.word	$4201
	.word	$4201
	.word	$4401
	.word	$4401
	.word	$4401
	.word	$4401
	.word	$4601
	.word	$4601
	.word	$4601
	.word	$4601
	.word	$4701
	.word	$4701
	.word	$4701
	.word	$4701
	.word	$4901
	.word	$4901
	.word	$4901
	.word	$4901
	.word	$5001
	.word	$5001
	.word	$5001
	.word	$5001
	.word	$4A04
	.word	$8004
	.word	$4601
	.word	$4601
	.word	$4601
	.word	$4601
	.word	$4701
	.word	$4701
	.word	$4701
	.word	$4701
	.word	$4901
	.word	$4901
	.word	$4901
	.word	$4901
	.word	$4A01
	.word	$4A01
	.word	$4A01
	.word	$4A01
	.word	$5101
	.word	$5101
	.word	$5101
	.word	$5101
	.word	$5401
	.word	$5401
	.word	$5401
	.word	$5401
	.word	$5204
	.word	$8004
	.word	$5201
	.word	$5201
	.word	$5201
	.word	$5201
	.word	$5401
	.word	$5401
	.word	$5401
	.word	$5401
	.word	$5601
	.word	$5601
	.word	$5601
	.word	$5601
	.word	$5701
	.word	$5701
	.word	$5701
	.word	$5701
	.word	$5901
	.word	$5901
	.word	$5901
	.word	$5901
	.word	$5A01
	.word	$5A01
	.word	$5A01
	.word	$5A01
	.word	$5A01
	.word	$5A01
	.word	$5A01
	.word	$5A01
	.word	$5B01
	.word	$5B01
	.word	$5B01
	.word	$5B01
	.word	$5B01
	.word	$5B01
	.word	$5B01
	.word	$5B01
	.word	$6001
	.word	$6001
	.word	$6001
	.word	$6001
	.word	$6001
	.word	$6001
	.word	$6001
	.word	$6001
	.word	$6108
	.word	$6201
	.word	$6201
	.word	$6201
	.word	$6201
	.word	$6201
	.word	$6201
	.word	$6201
	.word	$6201
	.word	$6201
	.word	$6201
	.word	$6201
	.word	$6201
	.word	$6201
	.word	$6201
	.word	$6201
	.word	$6201
	.word	$6201
	.word	$6201
	.word	$6201
	.word	$6201
	.word	$6201
	.word	$6201
	.word	$6201
	.word	$6201
	.word	$6201
	.word	$6201
	.word	$6201
	.word	$6201
	.word	$6201
	.word	$6201
	.word	$6201
	.word	$6201
	.word	$6210
	.word	$5601
	.word	$5601
	.word	$5601
	.word	$5601
	.word	$5601
	.word	$5601
	.word	$5601
	.word	$5601
	.word	$5601
	.word	$5601
	.word	$5601
	.word	$5601
	.word	$5401
	.word	$5401
	.word	$5602
	.word	$5708
	.word	$8004
	.word	$5204
	.word	$5708
	.word	$8004
	.word	$5204
	.word	$5704
	.word	$5204
	.word	$5704
	.word	$5B04
	.word	$6208
	.word	$8008
	.word	$6008
	.word	$8004
	.word	$5904
	.word	$6008
	.word	$8004
	.word	$5904
	.word	$6004
	.word	$5904
	.word	$5604
	.word	$5904
	.word	$5208
	.word	$8008
	.word	$5704
	.word	$8004
	.word	$570C
	.word	$5B01
	.word	$5B01
	.word	$5B01
	.word	$5B01
	.word	$5904
	.word	$5704
	.word	$5701
	.word	$5701
	.word	$5701
	.word	$5701
	.word	$5604
	.word	$560C
	.word	$5901
	.word	$5901
	.word	$5901
	.word	$5901
	.word	$6004
	.word	$5604
	.word	$5901
	.word	$5901
	.word	$5901
	.word	$5901
	.word	$5704
	.word	$570C
	.word	$5B01
	.word	$5B01
	.word	$5B01
	.word	$5B01
	.word	$5904
	.word	$5704
	.word	$5701
	.word	$5701
	.word	$5701
	.word	$5701
	.word	$5604
	.word	$560C
	.word	$5901
	.word	$5901
	.word	$5901
	.word	$5901
	.word	$6004
	.word	$5604
	.word	$5704
	.word	$5704
	.word	$5601
	.word	$5601
	.word	$5601
	.word	$5601
	.word	$5401
	.word	$5401
	.word	$5602
	.word	$5704
	.word	$5704
	.word	$5901
	.word	$5901
	.word	$5901
	.word	$5901
	.word	$5701
	.word	$5701
	.word	$5902
	.word	$5B04
	.word	$5B04
	.word	$6001
	.word	$6001
	.word	$6001
	.word	$6001
	.word	$5B01
	.word	$5B01
	.word	$6001
	.word	$6001
	.word	$6208
	.word	$8008
	.word	$5201
	.word	$5201
	.word	$5201
	.word	$5201
	.word	$5201
	.word	$5201
	.word	$5201
	.word	$5201
	.word	$5201
	.word	$5201
	.word	$5201
	.word	$5201
	.word	$5201
	.word	$5201
	.word	$5201
	.word	$5201
	.word	$5410
	.word	$5008
	.word	$5008
	.word	$4B08
	.word	$4B08
	.word	$4908
	.word	$4908
	.word	$4701
	.word	$4701
	.word	$4701
	.word	$4701
	.word	$4604
	.word	$4404
	.word	$4604
	.word	$4704
	.word	$8004
	.word	$4904
	.word	$8004
	.word	$4B04
	.word	$800C
	.word	$5201
	.word	$5201
	.word	$5201
	.word	$5201
	.word	$5201
	.word	$5201
	.word	$5201
	.word	$5201
	.word	$5201
	.word	$5201
	.word	$5201
	.word	$5201
	.word	$5201
	.word	$5201
	.word	$5201
	.word	$5201
	.word	$5410
	.word	$5201
	.word	$5201
	.word	$5201
	.word	$5201
	.word	$5004
	.word	$5004
	.word	$5004
	.word	$5001
	.word	$5001
	.word	$5001
	.word	$5001
	.word	$4B04
	.word	$4B04
	.word	$4B04
	.word	$4B01
	.word	$4B01
	.word	$4B01
	.word	$4B01
	.word	$4904
	.word	$4904
	.word	$4904
	.word	$4701
	.word	$4701
	.word	$4701
	.word	$4701
	.word	$4604
	.word	$4404
	.word	$4604
	.word	$4714
	.word	$4701
	.word	$4701
	.word	$4601
	.word	$4701
	.word	$4901
	.word	$4901
	.word	$4901
	.word	$4901
	.word	$4604
	.word	$4B14
	.word	$4B01
	.word	$4B01
	.word	$4901
	.word	$4B01
	.word	$5001
	.word	$5001
	.word	$5001
	.word	$5001
	.word	$4904
	.word	$5210
	.word	$5408
	.word	$5608
	.word	$5708
	.word	$5908
	.word	$5B08
	.word	$5108
	.word	$6201
	.word	$6201
	.word	$6201
	.word	$6201
	.word	$6201
	.word	$6201
	.word	$6201
	.word	$6201
	.word	$6201
	.word	$6201
	.word	$6201
	.word	$6201
	.word	$5904
	.word	$6101
	.word	$6101
	.word	$6101
	.word	$6101
	.word	$6101
	.word	$6101
	.word	$5902
	.word	$5101
	.word	$5101
	.word	$5101
	.word	$5101
	.word	$5101
	.word	$5101
	.word	$5902
	.word	$6201
	.word	$6201
	.word	$6201
	.word	$6201
	.word	$6201
	.word	$6201
	.word	$6201
	.word	$6201
	.word	$6201
	.word	$6201
	.word	$6201
	.word	$6201
	.word	$5904
	.word	$6101
	.word	$6101
	.word	$6101
	.word	$6101
	.word	$6101
	.word	$6101
	.word	$5902
	.word	$5101
	.word	$5101
	.word	$5101
	.word	$5101
	.word	$5101
	.word	$5101
	.word	$5902
	.word	$6204
	.word	$5904
	.word	$6104
	.word	$5904
	.word	$6204
	.word	$5904
	.word	$6104
	.word	$5904
	.word	$6204
	.word	$4204
	.word	$4204
	.word	$4204
	.word	$4208
	.word	$8008
	.word	$5201
	.word	$5201
	.word	$5201
	.word	$5201
	.word	$5201
	.word	$5201
	.word	$5201
	.word	$5201
	.word	$5201
	.word	$5201
	.word	$5001
	.word	$5001
	.word	$4B01
	.word	$4B01
	.word	$4901
	.word	$4901
	.word	$4704
	.word	$8004
	.word	$5404
	.word	$8004
	.word	$5004
	.word	$8004
	.word	$4904
	.word	$8004
	.word	$5204
	.word	$800C
	.word	$5B01
	.word	$5B01
	.word	$5B01
	.word	$5B01
	.word	$5B01
	.word	$5B01
	.word	$5B01
	.word	$5B01
	.word	$5B01
	.word	$5B01
	.word	$5901
	.word	$5901
	.word	$5701
	.word	$5701
	.word	$5601
	.word	$5601
	.word	$5404
	.word	$8004
	.word	$6004
	.word	$8004
	.word	$5B01
	.word	$5B01
	.word	$5B01
	.word	$5B01
	.word	$5B01
	.word	$5B01
	.word	$5B01
	.word	$5B01
	.word	$5B01
	.word	$5B01
	.word	$5B01
	.word	$5B01
	.word	$5B01
	.word	$5B01
	.word	$5B01
	.word	$5B01
	.word	$5908
	.word	$8008
	.word	$8004
	.word	$6204
	.word	$6204
	.word	$6204
	.word	$6204
	.word	$6204
	.word	$6204
	.word	$6204
	.word	$6204
	.word	$6204
	.word	$6204
	.word	$6204
	.word	$6201
	.word	$6201
	.word	$6201
	.word	$6201
	.word	$6001
	.word	$6001
	.word	$6001
	.word	$6001
	.word	$5901
	.word	$5901
	.word	$5901
	.word	$5901
	.word	$5604
	.word	$5601
	.word	$5601
	.word	$5601
	.word	$5601
	.word	$5704
	.word	$8004
	.word	$5404
	.word	$5401
	.word	$5401
	.word	$5401
	.word	$5401
	.word	$5204
	.word	$8004
	.word	$4604
	.word	$4708
	.word	$8004
	.word	$5204
	.word	$5701
	.word	$5701
	.word	$5701
	.word	$5701
	.word	$5601
	.word	$5601
	.word	$5601
	.word	$5601
	.word	$5401
	.word	$5401
	.word	$5401
	.word	$5401
	.word	$5204
	.word	$5401
	.word	$5401
	.word	$5401
	.word	$5401
	.word	$5204
	.word	$8004
	.word	$5204
	.word	$5204
	.word	$5204
	.word	$5204
	.word	$5204
	.word	$5401
	.word	$5401
	.word	$5401
	.word	$5401
	.word	$5204
	.word	$8004
	.word	$5204
	.word	$5704
	.word	$5604
	.word	$5404
	.word	$5204
	.word	$5401
	.word	$5401
	.word	$5401
	.word	$5401
	.word	$5204
	.word	$8004
	.word	$5204
	.word	$5204
	.word	$5204
	.word	$5204
	.word	$5204
	.word	$5401
	.word	$5401
	.word	$5401
	.word	$5401
	.word	$5204
	.word	$8008
	.word	$540A
	.word	$5201
	.word	$5201
	.word	$5001
	.word	$5001
	.word	$4B01
	.word	$4B01
	.word	$5008
	.word	$8008
	.word	$520A
	.word	$5001
	.word	$5001
	.word	$4B01
	.word	$4B01
	.word	$4901
	.word	$4901
	.word	$4B08
	.word	$8008
	.word	$5401
	.word	$5401
	.word	$5401
	.word	$5401
	.word	$5601
	.word	$5601
	.word	$5701
	.word	$5701
	.word	$5604
	.word	$5404
	.word	$5401
	.word	$5401
	.word	$5401
	.word	$5401
	.word	$5204
	.word	$4B04
	.word	$5204
	.word	$5201
	.word	$5201
	.word	$5201
	.word	$5201
	.word	$5004
	.word	$4B04
	.word	$4904
	.word	$4708
	.word	$8004
	.word	$5204
	.word	$5701
	.word	$5701
	.word	$5701
	.word	$5701
	.word	$5601
	.word	$5601
	.word	$5601
	.word	$5601
	.word	$5401
	.word	$5401
	.word	$5401
	.word	$5401
	.word	$5204
	.word	$5401
	.word	$5401
	.word	$5401
	.word	$5401
	.word	$5204
	.word	$8004
	.word	$5204
	.word	$5204
	.word	$5204
	.word	$5204
	.word	$5204
	.word	$5401
	.word	$5401
	.word	$5401
	.word	$5401
	.word	$5204
	.word	$8004
	.word	$5204
	.word	$5701
	.word	$5701
	.word	$5701
	.word	$5701
	.word	$5601
	.word	$5601
	.word	$5601
	.word	$5601
	.word	$5401
	.word	$5401
	.word	$5401
	.word	$5401
	.word	$5204
	.word	$5401
	.word	$5401
	.word	$5401
	.word	$5401
	.word	$5204
	.word	$8004
	.word	$5204
	.word	$5204
	.word	$5204
	.word	$5204
	.word	$5204
	.word	$5401
	.word	$5401
	.word	$5401
	.word	$5401
	.word	$5204
	.word	$8008
	.word	$640A
	.word	$6201
	.word	$6201
	.word	$6001
	.word	$6001
	.word	$5B01
	.word	$5B01
	.word	$6008
	.word	$8008
	.word	$620A
	.word	$6001
	.word	$6001
	.word	$5B01
	.word	$5B01
	.word	$5901
	.word	$5901
	.word	$5B08
	.word	$8008
	.word	$5401
	.word	$5401
	.word	$5401
	.word	$5401
	.word	$5601
	.word	$5601
	.word	$5701
	.word	$5701
	.word	$5604
	.word	$5404
	.word	$5204
	.word	$5704
	.word	$5B04
	.word	$6204
	.word	$6201
	.word	$6201
	.word	$6201
	.word	$6201
	.word	$6004
	.word	$5B04
	.word	$5904
	.word	$5704
	.word	$4204
	.word	$4404
	.word	$4604
	.word	$4704
	.word	$4704
	.word	$4901
	.word	$4901
	.word	$4901
	.word	$4901
	.word	$4701
	.word	$4701
	.word	$4901
	.word	$4901
	.word	$4B04
	.word	$4604
	.word	$4704
	.word	$4904
	.word	$4B04
	.word	$4B04
	.word	$5001
	.word	$5001
	.word	$5001
	.word	$5001
	.word	$4B01
	.word	$4B01
	.word	$5001
	.word	$5001
	.word	$5204
	.word	$5204
	.word	$5301
	.word	$5301
	.word	$5301
	.word	$5301
	.word	$5101
	.word	$5101
	.word	$5301
	.word	$5301
	.word	$5408
	.word	$8008
	.word	$440C
	.word	$4904
	.word	$4704
	.word	$4604
	.word	$4404
	.word	$4204
	.word	$5201
	.word	$5201
	.word	$5201
	.word	$5201
	.word	$5101
	.word	$5101
	.word	$5101
	.word	$5101
	.word	$5001
	.word	$5001
	.word	$5001
	.word	$5001
	.word	$4B01
	.word	$4B01
	.word	$4B01
	.word	$4B01
	.word	$5201
	.word	$5201
	.word	$5201
	.word	$5201
	.word	$5101
	.word	$5101
	.word	$5101
	.word	$5101
	.word	$5001
	.word	$5001
	.word	$5001
	.word	$5001
	.word	$4B04
	.word	$4401
	.word	$4401
	.word	$4401
	.word	$4401
	.word	$4401
	.word	$4401
	.word	$4401
	.word	$4401
	.word	$4401
	.word	$4401
	.word	$4401
	.word	$4401
	.word	$4904
	.word	$4701
	.word	$4701
	.word	$4701
	.word	$4701
	.word	$4601
	.word	$4601
	.word	$4601
	.word	$4601
	.word	$4401
	.word	$4401
	.word	$4401
	.word	$4401
	.word	$4204
	.word	$5201
	.word	$5201
	.word	$5201
	.word	$5201
	.word	$5401
	.word	$5401
	.word	$5401
	.word	$5401
	.word	$5601
	.word	$5601
	.word	$5601
	.word	$5601
	.word	$5701
	.word	$5701
	.word	$5701
	.word	$5701
	.word	$5201
	.word	$5201
	.word	$5201
	.word	$5201
	.word	$5401
	.word	$5401
	.word	$5401
	.word	$5401
	.word	$5601
	.word	$5601
	.word	$5601
	.word	$5601
	.word	$5704
	.word	$5908
	.word	$8008
	.word	$6208
	.word	$8008
	.word	$5708
	.word	$8004
	.word	$5204
	.word	$4B04
	.word	$4704
	.word	$4B04
	.word	$5204
	.word	$5704
	.word	$5204
	.word	$5704
	.word	$5B04
	.word	$6208
	.word	$5608
	.word	$5708
	.word	$8004
	.word	$5204
	.word	$4B04
	.word	$4704
	.word	$4B04
	.word	$5204
	.word	$5704
	.word	$5204
	.word	$5704
	.word	$5B04
	.word	$6208
	.word	$5608
	.word	$5708
	.word	$8008
	.word	$5708
	.word	$8008
	.word	$5708
	.word	$4706
	.word	$4702
	.word	$4708
	.word	$8008
	.word	$5208
	.word	$8004
	.word	$4904
	.word	$5208
	.word	$8004
	.word	$4904
	.word	$5204
	.word	$4904
	.word	$5204
	.word	$5604
	.word	$5908
	.word	$8008
	.word	$5908
	.word	$8004
	.word	$5604
	.word	$5908
	.word	$8004
	.word	$5604
	.word	$5904
	.word	$5604
	.word	$5304
	.word	$5604
	.word	$4B08
	.word	$8014
	.word	$5704
	.word	$6001
	.word	$6001
	.word	$6001
	.word	$6001
	.word	$5B01
	.word	$5B01
	.word	$5B01
	.word	$5B01
	.word	$5901
	.word	$5901
	.word	$5901
	.word	$5901
	.word	$5704
	.word	$5901
	.word	$5901
	.word	$5901
	.word	$5901
	.word	$5704
	.word	$8004
	.word	$5704
	.word	$5704
	.word	$5704
	.word	$5704
	.word	$5704
	.word	$5901
	.word	$5901
	.word	$5901
	.word	$5901
	.word	$5704
	.word	$8004
	.word	$5704
	.word	$6001
	.word	$6001
	.word	$6001
	.word	$6001
	.word	$5B01
	.word	$5B01
	.word	$5B01
	.word	$5B01
	.word	$5901
	.word	$5901
	.word	$5901
	.word	$5901
	.word	$5704
	.word	$5901
	.word	$5901
	.word	$5901
	.word	$5901
	.word	$5704
	.word	$8004
	.word	$5704
	.word	$5704
	.word	$5704
	.word	$5704
	.word	$5704
	.word	$5901
	.word	$5901
	.word	$5901
	.word	$5901
	.word	$5704
	.word	$8004
	.word	$5704
	.word	$6001
	.word	$6001
	.word	$6001
	.word	$6001
	.word	$5B01
	.word	$5B01
	.word	$5B01
	.word	$5B01
	.word	$5901
	.word	$5901
	.word	$5901
	.word	$5901
	.word	$5704
	.word	$5901
	.word	$5901
	.word	$5901
	.word	$5901
	.word	$5804
	.word	$8004
	.word	$5804
	.word	$5804
	.word	$5804
	.word	$5804
	.word	$5804
	.word	$5B01
	.word	$5B01
	.word	$5B01
	.word	$5B01
	.word	$5904
	.word	$8004
	.word	$5904
	.word	$6001
	.word	$6001
	.word	$6001
	.word	$6001
	.word	$5A01
	.word	$5A01
	.word	$5A01
	.word	$5A01
	.word	$5901
	.word	$5901
	.word	$5901
	.word	$5901
	.word	$5704
	.word	$5701
	.word	$5701
	.word	$5701
	.word	$5701
	.word	$5604
	.word	$8004
	.word	$5604
	.word	$5604
	.word	$5604
	.word	$5604
	.word	$5604
	.word	$5901
	.word	$5901
	.word	$5901
	.word	$5901
	.word	$5704
	.word	$8004
	.word	$5304
	.word	$5704
	.word	$5504
	.word	$5304
	.word	$5204
	.word	$5201
	.word	$5201
	.word	$5201
	.word	$5201
	.word	$5104
	.word	$8004
	.word	$5104
	.word	$5104
	.word	$5104
	.word	$5104
	.word	$5104
	.word	$5401
	.word	$5401
	.word	$5401
	.word	$5401
	.word	$5204
	.word	$8004
	.word	$4201
	.word	$4201
	.word	$4201
	.word	$4201
	.word	$4401
	.word	$4401
	.word	$4401
	.word	$4401
	.word	$4601
	.word	$4601
	.word	$4601
	.word	$4601
	.word	$4701
	.word	$4701
	.word	$4701
	.word	$4701
	.word	$4901
	.word	$4901
	.word	$4901
	.word	$4901
	.word	$5001
	.word	$5001
	.word	$5001
	.word	$5001
	.word	$4A04
	.word	$8004
	.word	$4601
	.word	$4601
	.word	$4601
	.word	$4601
	.word	$4701
	.word	$4701
	.word	$4701
	.word	$4701
	.word	$4901
	.word	$4901
	.word	$4901
	.word	$4901
	.word	$4A01
	.word	$4A01
	.word	$4A01
	.word	$4A01
	.word	$5101
	.word	$5101
	.word	$5101
	.word	$5101
	.word	$5401
	.word	$5401
	.word	$5401
	.word	$5401
	.word	$5204
	.word	$8004
	.word	$5201
	.word	$5201
	.word	$5201
	.word	$5201
	.word	$5401
	.word	$5401
	.word	$5401
	.word	$5401
	.word	$5601
	.word	$5601
	.word	$5601
	.word	$5601
	.word	$5701
	.word	$5701
	.word	$5701
	.word	$5701
	.word	$5901
	.word	$5901
	.word	$5901
	.word	$5901
	.word	$5A01
	.word	$5A01
	.word	$5A01
	.word	$5A01
	.word	$5A01
	.word	$5A01
	.word	$5A01
	.word	$5A01
	.word	$5B01
	.word	$5B01
	.word	$5B01
	.word	$5B01
	.word	$5B01
	.word	$5B01
	.word	$5B01
	.word	$5B01
	.word	$6001
	.word	$6001
	.word	$6001
	.word	$6001
	.word	$6001
	.word	$6001
	.word	$6001
	.word	$6001
	.word	$6108
	.word	$6201
	.word	$6201
	.word	$6201
	.word	$6201
	.word	$6201
	.word	$6201
	.word	$6201
	.word	$6201
	.word	$6201
	.word	$6201
	.word	$6201
	.word	$6201
	.word	$6201
	.word	$6201
	.word	$6201
	.word	$6201
	.word	$6201
	.word	$6201
	.word	$6201
	.word	$6201
	.word	$6201
	.word	$6201
	.word	$6201
	.word	$6201
	.word	$6201
	.word	$6201
	.word	$6201
	.word	$6201
	.word	$6201
	.word	$6201
	.word	$6201
	.word	$6201
	.word	$6210
	.word	$5601
	.word	$5601
	.word	$5601
	.word	$5601
	.word	$5601
	.word	$5601
	.word	$5601
	.word	$5601
	.word	$5601
	.word	$5601
	.word	$5601
	.word	$5601
	.word	$5401
	.word	$5401
	.word	$5602
	.word	$5708
	.word	$8004
	.word	$5204
	.word	$5708
	.word	$8004
	.word	$5204
	.word	$5704
	.word	$5204
	.word	$5704
	.word	$5B04
	.word	$6208
	.word	$8008
	.word	$6008
	.word	$8004
	.word	$5904
	.word	$6008
	.word	$8004
	.word	$5904
	.word	$6004
	.word	$5904
	.word	$5604
	.word	$5904
	.word	$5208
	.word	$8008
	.word	$5704
	.word	$8004
	.word	$570C
	.word	$5B01
	.word	$5B01
	.word	$5B01
	.word	$5B01
	.word	$5904
	.word	$5704
	.word	$5701
	.word	$5701
	.word	$5701
	.word	$5701
	.word	$5604
	.word	$560C
	.word	$5901
	.word	$5901
	.word	$5901
	.word	$5901
	.word	$6004
	.word	$5604
	.word	$5901
	.word	$5901
	.word	$5901
	.word	$5901
	.word	$5704
	.word	$570C
	.word	$5B01
	.word	$5B01
	.word	$5B01
	.word	$5B01
	.word	$5904
	.word	$5704
	.word	$5701
	.word	$5701
	.word	$5701
	.word	$5701
	.word	$5604
	.word	$560C
	.word	$5901
	.word	$5901
	.word	$5901
	.word	$5901
	.word	$6004
	.word	$5604
	.word	$5704
	.word	$5704
	.word	$5601
	.word	$5601
	.word	$5601
	.word	$5601
	.word	$5401
	.word	$5401
	.word	$5602
	.word	$5704
	.word	$5704
	.word	$5901
	.word	$5901
	.word	$5901
	.word	$5901
	.word	$5701
	.word	$5701
	.word	$5902
	.word	$5B04
	.word	$5B04
	.word	$6001
	.word	$6001
	.word	$6001
	.word	$6001
	.word	$5B01
	.word	$5B01
	.word	$6001
	.word	$6001
	.word	$6208
	.word	$8008
	.word	$5201
	.word	$5201
	.word	$5201
	.word	$5201
	.word	$5201
	.word	$5201
	.word	$5201
	.word	$5201
	.word	$5201
	.word	$5201
	.word	$5201
	.word	$5201
	.word	$5201
	.word	$5201
	.word	$5201
	.word	$5201
	.word	$5410
	.word	$5008
	.word	$5008
	.word	$4B08
	.word	$4B08
	.word	$4908
	.word	$4908
	.word	$4701
	.word	$4701
	.word	$4701
	.word	$4701
	.word	$4604
	.word	$4404
	.word	$4604
	.word	$4704
	.word	$8004
	.word	$4904
	.word	$8004
	.word	$4B04
	.word	$800C
	.word	$5201
	.word	$5201
	.word	$5201
	.word	$5201
	.word	$5201
	.word	$5201
	.word	$5201
	.word	$5201
	.word	$5201
	.word	$5201
	.word	$5201
	.word	$5201
	.word	$5201
	.word	$5201
	.word	$5201
	.word	$5201
	.word	$5410
	.word	$5201
	.word	$5201
	.word	$5201
	.word	$5201
	.word	$5004
	.word	$5004
	.word	$5004
	.word	$5001
	.word	$5001
	.word	$5001
	.word	$5001
	.word	$4B04
	.word	$4B04
	.word	$4B04
	.word	$4B01
	.word	$4B01
	.word	$4B01
	.word	$4B01
	.word	$4904
	.word	$4904
	.word	$4904
	.word	$4701
	.word	$4701
	.word	$4701
	.word	$4701
	.word	$4604
	.word	$4404
	.word	$4604
	.word	$4714
	.word	$4701
	.word	$4701
	.word	$4601
	.word	$4701
	.word	$4901
	.word	$4901
	.word	$4901
	.word	$4901
	.word	$4604
	.word	$4B14
	.word	$4B01
	.word	$4B01
	.word	$4901
	.word	$4B01
	.word	$5001
	.word	$5001
	.word	$5001
	.word	$5001
	.word	$4904
	.word	$5210
	.word	$5408
	.word	$5608
	.word	$5708
	.word	$5908
	.word	$5B08
	.word	$5108
	.word	$6201
	.word	$6201
	.word	$6201
	.word	$6201
	.word	$6201
	.word	$6201
	.word	$6201
	.word	$6201
	.word	$6201
	.word	$6201
	.word	$6201
	.word	$6201
	.word	$5904
	.word	$6101
	.word	$6101
	.word	$6101
	.word	$6101
	.word	$6101
	.word	$6101
	.word	$5902
	.word	$5101
	.word	$5101
	.word	$5101
	.word	$5101
	.word	$5101
	.word	$5101
	.word	$5902
	.word	$6201
	.word	$6201
	.word	$6201
	.word	$6201
	.word	$6201
	.word	$6201
	.word	$6201
	.word	$6201
	.word	$6201
	.word	$6201
	.word	$6201
	.word	$6201
	.word	$5904
	.word	$6101
	.word	$6101
	.word	$6101
	.word	$6101
	.word	$6101
	.word	$6101
	.word	$5902
	.word	$5101
	.word	$5101
	.word	$5101
	.word	$5101
	.word	$5101
	.word	$5101
	.word	$5902
	.word	$6204
	.word	$5904
	.word	$6104
	.word	$5904
	.word	$6204
	.word	$5904
	.word	$6104
	.word	$5904
	.word	$6204
	.word	$4204
	.word	$4204
	.word	$4204
	.word	$4208
	.word	$8008
	.word	$5201
	.word	$5201
	.word	$5201
	.word	$5201
	.word	$5201
	.word	$5201
	.word	$5201
	.word	$5201
	.word	$5201
	.word	$5201
	.word	$5001
	.word	$5001
	.word	$4B01
	.word	$4B01
	.word	$4901
	.word	$4901
	.word	$4704
	.word	$8004
	.word	$5404
	.word	$8004
	.word	$5004
	.word	$8004
	.word	$4904
	.word	$8004
	.word	$5204
	.word	$800C
	.word	$5B01
	.word	$5B01
	.word	$5B01
	.word	$5B01
	.word	$5B01
	.word	$5B01
	.word	$5B01
	.word	$5B01
	.word	$5B01
	.word	$5B01
	.word	$5901
	.word	$5901
	.word	$5701
	.word	$5701
	.word	$5601
	.word	$5601
	.word	$5404
	.word	$8004
	.word	$6004
	.word	$8004
	.word	$5B01
	.word	$5B01
	.word	$5B01
	.word	$5B01
	.word	$5B01
	.word	$5B01
	.word	$5B01
	.word	$5B01
	.word	$5B01
	.word	$5B01
	.word	$5B01
	.word	$5B01
	.word	$5B01
	.word	$5B01
	.word	$5B01
	.word	$5B01
	.word	$5908
	.word	$8008
	.word	$8004
	.word	$6204
	.word	$6204
	.word	$6204
	.word	$6204
	.word	$6204
	.word	$6204
	.word	$6204
	.word	$6204
	.word	$6204
	.word	$6204
	.word	$6204
	.word	$6201
	.word	$6201
	.word	$6201
	.word	$6201
	.word	$6001
	.word	$6001
	.word	$6001
	.word	$6001
	.word	$5901
	.word	$5901
	.word	$5901
	.word	$5901
	.word	$5604
	.word	$5601
	.word	$5601
	.word	$5601
	.word	$5601
	.word	$5704
	.word	$8004
	.word	$5404
	.word	$5401
	.word	$5401
	.word	$5401
	.word	$5401
	.word	$5204
	.word	$8004
	.word	$4604
	.word	$4708
	.word	$8004
	.word	$5204
	.word	$5701
	.word	$5701
	.word	$5701
	.word	$5701
	.word	$5601
	.word	$5601
	.word	$5601
	.word	$5601
	.word	$5401
	.word	$5401
	.word	$5401
	.word	$5401
	.word	$5204
	.word	$5401
	.word	$5401
	.word	$5401
	.word	$5401
	.word	$5204
	.word	$8004
	.word	$5204
	.word	$5204
	.word	$5204
	.word	$5204
	.word	$5204
	.word	$5401
	.word	$5401
	.word	$5401
	.word	$5401
	.word	$5204
	.word	$8004
	.word	$5204
	.word	$5704
	.word	$5604
	.word	$5404
	.word	$5204
	.word	$5401
	.word	$5401
	.word	$5401
	.word	$5401
	.word	$5204
	.word	$8004
	.word	$5204
	.word	$5204
	.word	$5204
	.word	$5204
	.word	$5204
	.word	$5401
	.word	$5401
	.word	$5401
	.word	$5401
	.word	$5204
	.word	$8008
	.word	$540A
	.word	$5201
	.word	$5201
	.word	$5001
	.word	$5001
	.word	$4B01
	.word	$4B01
	.word	$5008
	.word	$8008
	.word	$520A
	.word	$5001
	.word	$5001
	.word	$4B01
	.word	$4B01
	.word	$4901
	.word	$4901
	.word	$4B08
	.word	$8008
	.word	$5401
	.word	$5401
	.word	$5401
	.word	$5401
	.word	$5601
	.word	$5601
	.word	$5701
	.word	$5701
	.word	$5604
	.word	$5404
	.word	$5401
	.word	$5401
	.word	$5401
	.word	$5401
	.word	$5204
	.word	$4B04
	.word	$5204
	.word	$5201
	.word	$5201
	.word	$5201
	.word	$5201
	.word	$5004
	.word	$4B04
	.word	$4904
	.word	$4708
	.word	$8004
	.word	$5204
	.word	$5701
	.word	$5701
	.word	$5701
	.word	$5701
	.word	$5601
	.word	$5601
	.word	$5601
	.word	$5601
	.word	$5401
	.word	$5401
	.word	$5401
	.word	$5401
	.word	$5204
	.word	$5401
	.word	$5401
	.word	$5401
	.word	$5401
	.word	$5204
	.word	$8004
	.word	$5204
	.word	$5204
	.word	$5204
	.word	$5204
	.word	$5204
	.word	$5401
	.word	$5401
	.word	$5401
	.word	$5401
	.word	$5204
	.word	$8004
	.word	$5204
	.word	$5701
	.word	$5701
	.word	$5701
	.word	$5701
	.word	$5601
	.word	$5601
	.word	$5601
	.word	$5601
	.word	$5401
	.word	$5401
	.word	$5401
	.word	$5401
	.word	$5204
	.word	$5401
	.word	$5401
	.word	$5401
	.word	$5401
	.word	$5204
	.word	$8004
	.word	$5204
	.word	$5204
	.word	$5204
	.word	$5204
	.word	$5204
	.word	$5401
	.word	$5401
	.word	$5401
	.word	$5401
	.word	$5204
	.word	$8008
	.word	$640A
	.word	$6201
	.word	$6201
	.word	$6001
	.word	$6001
	.word	$5B01
	.word	$5B01
	.word	$6008
	.word	$8008
	.word	$620A
	.word	$6001
	.word	$6001
	.word	$5B01
	.word	$5B01
	.word	$5901
	.word	$5901
	.word	$5B08
	.word	$8008
	.word	$5401
	.word	$5401
	.word	$5401
	.word	$5401
	.word	$5601
	.word	$5601
	.word	$5701
	.word	$5701
	.word	$5604
	.word	$5404
	.word	$5204
	.word	$5704
	.word	$5B04
	.word	$6204
	.word	$6201
	.word	$6201
	.word	$6201
	.word	$6201
	.word	$6004
	.word	$5B04
	.word	$5904
	.word	$5704
	.word	$4204
	.word	$4404
	.word	$4604
	.word	$4704
	.word	$4704
	.word	$4901
	.word	$4901
	.word	$4901
	.word	$4901
	.word	$4701
	.word	$4701
	.word	$4901
	.word	$4901
	.word	$4B04
	.word	$4604
	.word	$4704
	.word	$4904
	.word	$4B04
	.word	$4B04
	.word	$5001
	.word	$5001
	.word	$5001
	.word	$5001
	.word	$4B01
	.word	$4B01
	.word	$5001
	.word	$5001
	.word	$5204
	.word	$5204
	.word	$5301
	.word	$5301
	.word	$5301
	.word	$5301
	.word	$5101
	.word	$5101
	.word	$5301
	.word	$5301
	.word	$5408
	.word	$8008
	.word	$440C
	.word	$4904
	.word	$4704
	.word	$4604
	.word	$4404
	.word	$4204
	.word	$5201
	.word	$5201
	.word	$5201
	.word	$5201
	.word	$5101
	.word	$5101
	.word	$5101
	.word	$5101
	.word	$5001
	.word	$5001
	.word	$5001
	.word	$5001
	.word	$4B01
	.word	$4B01
	.word	$4B01
	.word	$4B01
	.word	$5201
	.word	$5201
	.word	$5201
	.word	$5201
	.word	$5101
	.word	$5101
	.word	$5101
	.word	$5101
	.word	$5001
	.word	$5001
	.word	$5001
	.word	$5001
	.word	$4B04
	.word	$4401
	.word	$4401
	.word	$4401
	.word	$4401
	.word	$4401
	.word	$4401
	.word	$4401
	.word	$4401
	.word	$4401
	.word	$4401
	.word	$4401
	.word	$4401
	.word	$4904
	.word	$4701
	.word	$4701
	.word	$4701
	.word	$4701
	.word	$4601
	.word	$4601
	.word	$4601
	.word	$4601
	.word	$4401
	.word	$4401
	.word	$4401
	.word	$4401
	.word	$4204
	.word	$5201
	.word	$5201
	.word	$5201
	.word	$5201
	.word	$5401
	.word	$5401
	.word	$5401
	.word	$5401
	.word	$5601
	.word	$5601
	.word	$5601
	.word	$5601
	.word	$5701
	.word	$5701
	.word	$5701
	.word	$5701
	.word	$5201
	.word	$5201
	.word	$5201
	.word	$5201
	.word	$5401
	.word	$5401
	.word	$5401
	.word	$5401
	.word	$5601
	.word	$5601
	.word	$5601
	.word	$5601
	.word	$5704
	.word	$5908
	.word	$8008
	.word	$6208
	.word	$8008
	.word	$5708
	.word	$8004
	.word	$5204
	.word	$4B04
	.word	$4704
	.word	$4B04
	.word	$5204
	.word	$5704
	.word	$5204
	.word	$5704
	.word	$5B04
	.word	$6208
	.word	$5608
	.word	$5708
	.word	$8004
	.word	$5204
	.word	$4B04
	.word	$4704
	.word	$4B04
	.word	$5204
	.word	$5704
	.word	$5204
	.word	$5704
	.word	$5B04
	.word	$6208
	.word	$5608
	.word	$5708
	.word	$8008
	.word	$5708
	.word	$8008
	.word	$5708
	.word	$4706
	.word	$4702
	.word	$4708
	.word	$8008
	.word	$0000
_Voice2:
	.word	$4708
	.word	$8004
	.word	$4204
	.word	$4708
	.word	$8004
	.word	$4204
	.word	$4704
	.word	$4204
	.word	$4704
	.word	$4B04
	.word	$5208
	.word	$8008
	.word	$5008
	.word	$8004
	.word	$4904
	.word	$5008
	.word	$8004
	.word	$4904
	.word	$5004
	.word	$4904
	.word	$4604
	.word	$4904
	.word	$4208
	.word	$8008
	.word	$4704
	.word	$4704
	.word	$4704
	.word	$4704
	.word	$4704
	.word	$4704
	.word	$4704
	.word	$4704
	.word	$4904
	.word	$4904
	.word	$4904
	.word	$4904
	.word	$4901
	.word	$4901
	.word	$4901
	.word	$4901
	.word	$5004
	.word	$4601
	.word	$4601
	.word	$4601
	.word	$4601
	.word	$4904
	.word	$4704
	.word	$4704
	.word	$4704
	.word	$4704
	.word	$4704
	.word	$4704
	.word	$4704
	.word	$4704
	.word	$4904
	.word	$4904
	.word	$4904
	.word	$4904
	.word	$4901
	.word	$4901
	.word	$4901
	.word	$4901
	.word	$5004
	.word	$4601
	.word	$4601
	.word	$4601
	.word	$4601
	.word	$4904
	.word	$4210
	.word	$4210
	.word	$4210
	.word	$4208
	.word	$8028
	.word	$3610
	.word	$3710
	.word	$4008
	.word	$4008
	.word	$3908
	.word	$3208
	.word	$3204
	.word	$8004
	.word	$4204
	.word	$8004
	.word	$4208
	.word	$8028
	.word	$4601
	.word	$4601
	.word	$4601
	.word	$4601
	.word	$4601
	.word	$4601
	.word	$4601
	.word	$4601
	.word	$4601
	.word	$4601
	.word	$4601
	.word	$4601
	.word	$4601
	.word	$4601
	.word	$4601
	.word	$4601
	.word	$4710
	.word	$4008
	.word	$4004
	.word	$4004
	.word	$3908
	.word	$3904
	.word	$3904
	.word	$3704
	.word	$3704
	.word	$3704
	.word	$3704
	.word	$3704
	.word	$3704
	.word	$3704
	.word	$3704
	.word	$3704
	.word	$3704
	.word	$3704
	.word	$3704
	.word	$3704
	.word	$3704
	.word	$3704
	.word	$3704
	.word	$3704
	.word	$4704
	.word	$4704
	.word	$4704
	.word	$4704
	.word	$4704
	.word	$4904
	.word	$4904
	.word	$4704
	.word	$4704
	.word	$4604
	.word	$4604
	.word	$4704
	.word	$4704
	.word	$4404
	.word	$4404
	.word	$4210
	.word	$4410
	.word	$4210
	.word	$4410
	.word	$4604
	.word	$4704
	.word	$4904
	.word	$4704
	.word	$4604
	.word	$4704
	.word	$4904
	.word	$4604
	.word	$4B04
	.word	$4904
	.word	$4704
	.word	$4904
	.word	$4B04
	.word	$4904
	.word	$4804
	.word	$4B04
	.word	$4904
	.word	$4904
	.word	$4904
	.word	$4904
	.word	$4904
	.word	$4904
	.word	$4904
	.word	$4904
	.word	$4904
	.word	$3904
	.word	$3904
	.word	$3904
	.word	$3908
	.word	$8020
	.word	$4604
	.word	$8004
	.word	$3B04
	.word	$8004
	.word	$4704
	.word	$8004
	.word	$4404
	.word	$8004
	.word	$4104
	.word	$800C
	.word	$4401
	.word	$4401
	.word	$4401
	.word	$4401
	.word	$4401
	.word	$4401
	.word	$4401
	.word	$4401
	.word	$4204
	.word	$8004
	.word	$4404
	.word	$8004
	.word	$4201
	.word	$4201
	.word	$4201
	.word	$4201
	.word	$4201
	.word	$4201
	.word	$4201
	.word	$4201
	.word	$4201
	.word	$4201
	.word	$4201
	.word	$4201
	.word	$4201
	.word	$4201
	.word	$4201
	.word	$4201
	.word	$4108
	.word	$8010
	.word	$4101
	.word	$4101
	.word	$4101
	.word	$4101
	.word	$4101
	.word	$4101
	.word	$4101
	.word	$4101
	.word	$4204
	.word	$8004
	.word	$4604
	.word	$8004
	.word	$3B04
	.word	$8004
	.word	$3704
	.word	$8004
	.word	$3408
	.word	$8004
	.word	$4404
	.word	$4704
	.word	$4604
	.word	$8004
	.word	$5704
	.word	$5701
	.word	$5701
	.word	$5701
	.word	$5701
	.word	$5604
	.word	$8004
	.word	$4704
	.word	$4204
	.word	$4204
	.word	$4404
	.word	$4404
	.word	$4604
	.word	$4604
	.word	$4204
	.word	$4204
	.word	$4104
	.word	$4104
	.word	$4204
	.word	$4204
	.word	$4404
	.word	$4404
	.word	$4104
	.word	$4104
	.word	$4204
	.word	$4204
	.word	$4404
	.word	$4404
	.word	$4604
	.word	$4604
	.word	$4204
	.word	$4204
	.word	$4104
	.word	$4104
	.word	$4204
	.word	$4204
	.word	$4404
	.word	$4404
	.word	$4104
	.word	$4104
	.word	$4204
	.word	$4204
	.word	$4604
	.word	$4404
	.word	$4304
	.word	$3B04
	.word	$4104
	.word	$4304
	.word	$4404
	.word	$4704
	.word	$4404
	.word	$4204
	.word	$4104
	.word	$3904
	.word	$3B04
	.word	$4104
	.word	$5204
	.word	$5204
	.word	$5204
	.word	$5204
	.word	$5204
	.word	$5204
	.word	$5204
	.word	$5204
	.word	$5204
	.word	$4904
	.word	$4904
	.word	$4904
	.word	$4904
	.word	$4904
	.word	$4904
	.word	$4704
	.word	$4604
	.word	$4204
	.word	$4404
	.word	$4404
	.word	$4604
	.word	$4604
	.word	$4204
	.word	$4204
	.word	$4104
	.word	$4104
	.word	$4204
	.word	$4204
	.word	$4404
	.word	$4404
	.word	$4104
	.word	$4104
	.word	$4204
	.word	$4204
	.word	$4404
	.word	$4404
	.word	$4604
	.word	$4604
	.word	$4204
	.word	$4204
	.word	$4104
	.word	$4104
	.word	$4204
	.word	$4204
	.word	$4404
	.word	$4404
	.word	$4104
	.word	$4104
	.word	$4204
	.word	$4204
	.word	$4604
	.word	$4404
	.word	$4304
	.word	$3B04
	.word	$4104
	.word	$4304
	.word	$4404
	.word	$4704
	.word	$4404
	.word	$4204
	.word	$4104
	.word	$3904
	.word	$3B04
	.word	$4104
	.word	$4204
	.word	$5204
	.word	$5204
	.word	$5204
	.word	$5204
	.word	$5204
	.word	$5204
	.word	$5204
	.word	$5204
	.word	$4904
	.word	$4904
	.word	$4904
	.word	$4904
	.word	$4904
	.word	$4904
	.word	$4704
	.word	$4604
	.word	$3904
	.word	$3B04
	.word	$4104
	.word	$4204
	.word	$4204
	.word	$4404
	.word	$4404
	.word	$4604
	.word	$4104
	.word	$4204
	.word	$4404
	.word	$4604
	.word	$4604
	.word	$4704
	.word	$4704
	.word	$4904
	.word	$4904
	.word	$4A04
	.word	$4A04
	.word	$4B08
	.word	$8008
	.word	$4401
	.word	$4401
	.word	$4401
	.word	$4401
	.word	$4401
	.word	$4401
	.word	$4401
	.word	$4401
	.word	$4401
	.word	$4401
	.word	$4401
	.word	$4401
	.word	$4401
	.word	$4401
	.word	$4401
	.word	$4401
	.word	$4401
	.word	$4401
	.word	$4401
	.word	$4401
	.word	$4401
	.word	$4401
	.word	$4401
	.word	$4401
	.word	$4201
	.word	$4201
	.word	$4201
	.word	$4201
	.word	$4104
	.word	$5204
	.word	$8004
	.word	$5204
	.word	$8004
	.word	$5204
	.word	$800C
	.word	$4708
	.word	$8004
	.word	$4204
	.word	$4708
	.word	$8004
	.word	$4204
	.word	$4704
	.word	$4204
	.word	$4704
	.word	$4B04
	.word	$5208
	.word	$8008
	.word	$5008
	.word	$8004
	.word	$4904
	.word	$5008
	.word	$8004
	.word	$4904
	.word	$5004
	.word	$4904
	.word	$4604
	.word	$4904
	.word	$4208
	.word	$8008
	.word	$4704
	.word	$4704
	.word	$4704
	.word	$4704
	.word	$4704
	.word	$4704
	.word	$4704
	.word	$4704
	.word	$4904
	.word	$4904
	.word	$4904
	.word	$4904
	.word	$4901
	.word	$4901
	.word	$4901
	.word	$4901
	.word	$5004
	.word	$4601
	.word	$4601
	.word	$4601
	.word	$4601
	.word	$4904
	.word	$4704
	.word	$4704
	.word	$4704
	.word	$4704
	.word	$4704
	.word	$4704
	.word	$4704
	.word	$4704
	.word	$4904
	.word	$4904
	.word	$4904
	.word	$4904
	.word	$4901
	.word	$4901
	.word	$4901
	.word	$4901
	.word	$5004
	.word	$4601
	.word	$4601
	.word	$4601
	.word	$4601
	.word	$4904
	.word	$4210
	.word	$4210
	.word	$4210
	.word	$4208
	.word	$8028
	.word	$3610
	.word	$3710
	.word	$4008
	.word	$4008
	.word	$3908
	.word	$3208
	.word	$3204
	.word	$8004
	.word	$4204
	.word	$8004
	.word	$4208
	.word	$8028
	.word	$4601
	.word	$4601
	.word	$4601
	.word	$4601
	.word	$4601
	.word	$4601
	.word	$4601
	.word	$4601
	.word	$4601
	.word	$4601
	.word	$4601
	.word	$4601
	.word	$4601
	.word	$4601
	.word	$4601
	.word	$4601
	.word	$4710
	.word	$4008
	.word	$4004
	.word	$4004
	.word	$3908
	.word	$3904
	.word	$3904
	.word	$3704
	.word	$3704
	.word	$3704
	.word	$3704
	.word	$3704
	.word	$3704
	.word	$3704
	.word	$3704
	.word	$3704
	.word	$3704
	.word	$3704
	.word	$3704
	.word	$3704
	.word	$3704
	.word	$3704
	.word	$3704
	.word	$3704
	.word	$4704
	.word	$4704
	.word	$4704
	.word	$4704
	.word	$4704
	.word	$4904
	.word	$4904
	.word	$4704
	.word	$4704
	.word	$4604
	.word	$4604
	.word	$4704
	.word	$4704
	.word	$4404
	.word	$4404
	.word	$4210
	.word	$4410
	.word	$4210
	.word	$4410
	.word	$4604
	.word	$4704
	.word	$4904
	.word	$4704
	.word	$4604
	.word	$4704
	.word	$4904
	.word	$4604
	.word	$4B04
	.word	$4904
	.word	$4704
	.word	$4904
	.word	$4B04
	.word	$4904
	.word	$4804
	.word	$4B04
	.word	$4904
	.word	$4904
	.word	$4904
	.word	$4904
	.word	$4904
	.word	$4904
	.word	$4904
	.word	$4904
	.word	$4904
	.word	$3904
	.word	$3904
	.word	$3904
	.word	$3908
	.word	$8020
	.word	$4604
	.word	$8004
	.word	$3B04
	.word	$8004
	.word	$4704
	.word	$8004
	.word	$4404
	.word	$8004
	.word	$4104
	.word	$800C
	.word	$4401
	.word	$4401
	.word	$4401
	.word	$4401
	.word	$4401
	.word	$4401
	.word	$4401
	.word	$4401
	.word	$4204
	.word	$8004
	.word	$4404
	.word	$8004
	.word	$4201
	.word	$4201
	.word	$4201
	.word	$4201
	.word	$4201
	.word	$4201
	.word	$4201
	.word	$4201
	.word	$4201
	.word	$4201
	.word	$4201
	.word	$4201
	.word	$4201
	.word	$4201
	.word	$4201
	.word	$4201
	.word	$4108
	.word	$8010
	.word	$4101
	.word	$4101
	.word	$4101
	.word	$4101
	.word	$4101
	.word	$4101
	.word	$4101
	.word	$4101
	.word	$4204
	.word	$8004
	.word	$4604
	.word	$8004
	.word	$3B04
	.word	$8004
	.word	$3704
	.word	$8004
	.word	$3408
	.word	$8004
	.word	$4404
	.word	$4704
	.word	$4604
	.word	$8004
	.word	$5704
	.word	$5701
	.word	$5701
	.word	$5701
	.word	$5701
	.word	$5604
	.word	$8004
	.word	$4704
	.word	$4204
	.word	$4204
	.word	$4404
	.word	$4404
	.word	$4604
	.word	$4604
	.word	$4204
	.word	$4204
	.word	$4104
	.word	$4104
	.word	$4204
	.word	$4204
	.word	$4404
	.word	$4404
	.word	$4104
	.word	$4104
	.word	$4204
	.word	$4204
	.word	$4404
	.word	$4404
	.word	$4604
	.word	$4604
	.word	$4204
	.word	$4204
	.word	$4104
	.word	$4104
	.word	$4204
	.word	$4204
	.word	$4404
	.word	$4404
	.word	$4104
	.word	$4104
	.word	$4204
	.word	$4204
	.word	$4604
	.word	$4404
	.word	$4304
	.word	$3B04
	.word	$4104
	.word	$4304
	.word	$4404
	.word	$4704
	.word	$4404
	.word	$4204
	.word	$4104
	.word	$3904
	.word	$3B04
	.word	$4104
	.word	$5204
	.word	$5204
	.word	$5204
	.word	$5204
	.word	$5204
	.word	$5204
	.word	$5204
	.word	$5204
	.word	$5204
	.word	$4904
	.word	$4904
	.word	$4904
	.word	$4904
	.word	$4904
	.word	$4904
	.word	$4704
	.word	$4604
	.word	$4204
	.word	$4404
	.word	$4404
	.word	$4604
	.word	$4604
	.word	$4204
	.word	$4204
	.word	$4104
	.word	$4104
	.word	$4204
	.word	$4204
	.word	$4404
	.word	$4404
	.word	$4104
	.word	$4104
	.word	$4204
	.word	$4204
	.word	$4404
	.word	$4404
	.word	$4604
	.word	$4604
	.word	$4204
	.word	$4204
	.word	$4104
	.word	$4104
	.word	$4204
	.word	$4204
	.word	$4404
	.word	$4404
	.word	$4104
	.word	$4104
	.word	$4204
	.word	$4204
	.word	$4604
	.word	$4404
	.word	$4304
	.word	$3B04
	.word	$4104
	.word	$4304
	.word	$4404
	.word	$4704
	.word	$4404
	.word	$4204
	.word	$4104
	.word	$3904
	.word	$3B04
	.word	$4104
	.word	$4204
	.word	$5204
	.word	$5204
	.word	$5204
	.word	$5204
	.word	$5204
	.word	$5204
	.word	$5204
	.word	$5204
	.word	$4904
	.word	$4904
	.word	$4904
	.word	$4904
	.word	$4904
	.word	$4904
	.word	$4704
	.word	$4604
	.word	$3904
	.word	$3B04
	.word	$4104
	.word	$4204
	.word	$4204
	.word	$4404
	.word	$4404
	.word	$4604
	.word	$4104
	.word	$4204
	.word	$4404
	.word	$4604
	.word	$4604
	.word	$4704
	.word	$4704
	.word	$4904
	.word	$4904
	.word	$4A04
	.word	$4A04
	.word	$4B08
	.word	$8008
	.word	$4401
	.word	$4401
	.word	$4401
	.word	$4401
	.word	$4401
	.word	$4401
	.word	$4401
	.word	$4401
	.word	$4401
	.word	$4401
	.word	$4401
	.word	$4401
	.word	$4401
	.word	$4401
	.word	$4401
	.word	$4401
	.word	$4401
	.word	$4401
	.word	$4401
	.word	$4401
	.word	$4401
	.word	$4401
	.word	$4401
	.word	$4401
	.word	$4201
	.word	$4201
	.word	$4201
	.word	$4201
	.word	$4104
	.word	$5204
	.word	$8004
	.word	$5204
	.word	$8004
	.word	$5204
	.word	$800C
	.word	$4208
	.word	$8004
	.word	$3904
	.word	$4208
	.word	$8004
	.word	$3904
	.word	$4204
	.word	$3904
	.word	$4204
	.word	$4604
	.word	$4908
	.word	$8008
	.word	$4908
	.word	$8004
	.word	$4604
	.word	$4908
	.word	$8004
	.word	$4604
	.word	$4904
	.word	$4604
	.word	$4304
	.word	$4604
	.word	$3B08
	.word	$8008
	.word	$4004
	.word	$4004
	.word	$4204
	.word	$4204
	.word	$4404
	.word	$4404
	.word	$4004
	.word	$4004
	.word	$3B04
	.word	$3B04
	.word	$4004
	.word	$4004
	.word	$4204
	.word	$4204
	.word	$3B04
	.word	$3B04
	.word	$4004
	.word	$4004
	.word	$4204
	.word	$4204
	.word	$4404
	.word	$4404
	.word	$4004
	.word	$4004
	.word	$3B04
	.word	$3B04
	.word	$4004
	.word	$4004
	.word	$4204
	.word	$4204
	.word	$3B04
	.word	$3B04
	.word	$4004
	.word	$4004
	.word	$4204
	.word	$4204
	.word	$4404
	.word	$4404
	.word	$4004
	.word	$4004
	.word	$3B04
	.word	$3B04
	.word	$4004
	.word	$4004
	.word	$4204
	.word	$4204
	.word	$3B04
	.word	$3B04
	.word	$3904
	.word	$3904
	.word	$3B04
	.word	$3B04
	.word	$4004
	.word	$4004
	.word	$3904
	.word	$3904
	.word	$3904
	.word	$3904
	.word	$3A04
	.word	$3A04
	.word	$4004
	.word	$4004
	.word	$3904
	.word	$3904
	.word	$3704
	.word	$3704
	.word	$3604
	.word	$3604
	.word	$3704
	.word	$3704
	.word	$4604
	.word	$4604
	.word	$4704
	.word	$4704
	.word	$4604
	.word	$4604
	.word	$4704
	.word	$3704
	.word	$3604
	.word	$3704
	.word	$3908
	.word	$8004
	.word	$3201
	.word	$3201
	.word	$3201
	.word	$3201
	.word	$3401
	.word	$3401
	.word	$3401
	.word	$3401
	.word	$3601
	.word	$3601
	.word	$3601
	.word	$3601
	.word	$3701
	.word	$3701
	.word	$3701
	.word	$3701
	.word	$3901
	.word	$3901
	.word	$3901
	.word	$3901
	.word	$4001
	.word	$4001
	.word	$4001
	.word	$4001
	.word	$3A04
	.word	$8004
	.word	$3601
	.word	$3601
	.word	$3601
	.word	$3601
	.word	$3701
	.word	$3701
	.word	$3701
	.word	$3701
	.word	$3901
	.word	$3901
	.word	$3901
	.word	$3901
	.word	$3A01
	.word	$3A01
	.word	$3A01
	.word	$3A01
	.word	$4101
	.word	$4101
	.word	$4101
	.word	$4101
	.word	$4401
	.word	$4401
	.word	$4401
	.word	$4401
	.word	$4204
	.word	$8038
	.word	$4B04
	.word	$4B04
	.word	$4B01
	.word	$4B01
	.word	$4B01
	.word	$4B01
	.word	$5004
	.word	$4904
	.word	$4904
	.word	$4901
	.word	$4901
	.word	$4901
	.word	$4901
	.word	$4B04
	.word	$4704
	.word	$4704
	.word	$4701
	.word	$4701
	.word	$4701
	.word	$4701
	.word	$4B04
	.word	$4B01
	.word	$4B01
	.word	$4B01
	.word	$4B01
	.word	$4904
	.word	$4704
	.word	$4204
	.word	$3B08
	.word	$8004
	.word	$4204
	.word	$4708
	.word	$8004
	.word	$4204
	.word	$4704
	.word	$4204
	.word	$4704
	.word	$4B04
	.word	$5208
	.word	$8008
	.word	$5008
	.word	$8004
	.word	$4904
	.word	$5008
	.word	$8004
	.word	$4904
	.word	$5004
	.word	$4904
	.word	$4604
	.word	$4904
	.word	$4208
	.word	$8008
	.word	$4704
	.word	$4704
	.word	$4704
	.word	$4704
	.word	$4704
	.word	$4704
	.word	$4704
	.word	$4704
	.word	$4704
	.word	$4704
	.word	$4704
	.word	$4704
	.word	$4701
	.word	$4701
	.word	$4701
	.word	$4701
	.word	$4B04
	.word	$4401
	.word	$4401
	.word	$4401
	.word	$4401
	.word	$4704
	.word	$4704
	.word	$4704
	.word	$4704
	.word	$4704
	.word	$4704
	.word	$4704
	.word	$4704
	.word	$4704
	.word	$4704
	.word	$4704
	.word	$4704
	.word	$4704
	.word	$4701
	.word	$4701
	.word	$4701
	.word	$4701
	.word	$4B04
	.word	$4401
	.word	$4401
	.word	$4401
	.word	$4401
	.word	$4704
	.word	$4210
	.word	$4210
	.word	$4210
	.word	$4208
	.word	$8028
	.word	$3610
	.word	$3710
	.word	$4008
	.word	$4008
	.word	$3908
	.word	$3908
	.word	$3204
	.word	$8004
	.word	$4204
	.word	$8004
	.word	$4208
	.word	$8028
	.word	$4601
	.word	$4601
	.word	$4601
	.word	$4601
	.word	$4601
	.word	$4601
	.word	$4601
	.word	$4601
	.word	$4601
	.word	$4601
	.word	$4601
	.word	$4601
	.word	$4601
	.word	$4601
	.word	$4601
	.word	$4601
	.word	$4710
	.word	$4008
	.word	$4004
	.word	$4004
	.word	$3908
	.word	$3904
	.word	$3904
	.word	$3704
	.word	$3704
	.word	$3704
	.word	$3704
	.word	$3704
	.word	$3704
	.word	$3704
	.word	$3704
	.word	$3704
	.word	$3704
	.word	$3704
	.word	$3704
	.word	$3704
	.word	$3704
	.word	$3704
	.word	$3704
	.word	$3704
	.word	$4704
	.word	$4704
	.word	$4704
	.word	$4704
	.word	$4704
	.word	$4904
	.word	$4904
	.word	$4704
	.word	$4704
	.word	$4604
	.word	$4604
	.word	$4704
	.word	$4704
	.word	$4404
	.word	$4404
	.word	$4210
	.word	$4410
	.word	$4210
	.word	$4410
	.word	$4208
	.word	$4408
	.word	$4208
	.word	$4408
	.word	$4204
	.word	$3204
	.word	$3204
	.word	$3204
	.word	$3208
	.word	$8020
	.word	$3B04
	.word	$8004
	.word	$3404
	.word	$8004
	.word	$4004
	.word	$8004
	.word	$3904
	.word	$8004
	.word	$3604
	.word	$800C
	.word	$4901
	.word	$4901
	.word	$4901
	.word	$4901
	.word	$4901
	.word	$4901
	.word	$4901
	.word	$4901
	.word	$4704
	.word	$8004
	.word	$4904
	.word	$8004
	.word	$4B10
	.word	$4908
	.word	$8008
	.word	$5201
	.word	$5201
	.word	$5201
	.word	$5201
	.word	$5201
	.word	$5201
	.word	$5201
	.word	$5201
	.word	$5201
	.word	$5201
	.word	$5001
	.word	$5001
	.word	$4B01
	.word	$4B01
	.word	$4901
	.word	$4901
	.word	$4704
	.word	$8004
	.word	$5404
	.word	$8004
	.word	$5004
	.word	$8004
	.word	$4904
	.word	$8004
	.word	$5208
	.word	$8004
	.word	$5004
	.word	$5001
	.word	$5001
	.word	$5001
	.word	$5001
	.word	$4B04
	.word	$8004
	.word	$5004
	.word	$5001
	.word	$5001
	.word	$5001
	.word	$5001
	.word	$4B04
	.word	$8004
	.word	$4004
	.word	$3704
	.word	$3704
	.word	$3904
	.word	$3904
	.word	$3B04
	.word	$3B04
	.word	$3704
	.word	$3704
	.word	$3604
	.word	$3604
	.word	$3704
	.word	$3704
	.word	$3904
	.word	$3904
	.word	$3604
	.word	$3604
	.word	$3704
	.word	$3704
	.word	$3904
	.word	$3904
	.word	$3B04
	.word	$3B04
	.word	$3704
	.word	$3704
	.word	$3604
	.word	$3604
	.word	$3704
	.word	$3704
	.word	$3904
	.word	$3904
	.word	$3604
	.word	$3604
	.word	$3704
	.word	$4704
	.word	$4B04
	.word	$4904
	.word	$4804
	.word	$4404
	.word	$4604
	.word	$4804
	.word	$4904
	.word	$5004
	.word	$4904
	.word	$4704
	.word	$4604
	.word	$4204
	.word	$4404
	.word	$4604
	.word	$4704
	.word	$4704
	.word	$4704
	.word	$4704
	.word	$4704
	.word	$4704
	.word	$4704
	.word	$4704
	.word	$4704
	.word	$4204
	.word	$4204
	.word	$4204
	.word	$4204
	.word	$4204
	.word	$4204
	.word	$4004
	.word	$3B04
	.word	$3704
	.word	$3904
	.word	$3904
	.word	$3B04
	.word	$3B04
	.word	$3704
	.word	$3704
	.word	$3604
	.word	$3604
	.word	$3704
	.word	$3704
	.word	$3904
	.word	$3904
	.word	$3604
	.word	$3604
	.word	$3704
	.word	$4704
	.word	$4904
	.word	$4904
	.word	$4B04
	.word	$4B04
	.word	$4704
	.word	$4704
	.word	$4604
	.word	$4604
	.word	$4704
	.word	$4704
	.word	$4904
	.word	$4904
	.word	$4604
	.word	$4604
	.word	$4704
	.word	$4704
	.word	$4B04
	.word	$4904
	.word	$4804
	.word	$4404
	.word	$4604
	.word	$4804
	.word	$4904
	.word	$5004
	.word	$4904
	.word	$4704
	.word	$4604
	.word	$4204
	.word	$4404
	.word	$4604
	.word	$4704
	.word	$4704
	.word	$4704
	.word	$4704
	.word	$4704
	.word	$4704
	.word	$4704
	.word	$4704
	.word	$4701
	.word	$4701
	.word	$4701
	.word	$4701
	.word	$4904
	.word	$5004
	.word	$5004
	.word	$5004
	.word	$5004
	.word	$5004
	.word	$4B04
	.word	$4904
	.word	$4204
	.word	$4404
	.word	$4604
	.word	$4704
	.word	$4704
	.word	$4904
	.word	$4904
	.word	$4B04
	.word	$3604
	.word	$3704
	.word	$3904
	.word	$3B04
	.word	$3B04
	.word	$4004
	.word	$4004
	.word	$4004
	.word	$4004
	.word	$4104
	.word	$4104
	.word	$4208
	.word	$8008
	.word	$3901
	.word	$3901
	.word	$3901
	.word	$3901
	.word	$3901
	.word	$3901
	.word	$3901
	.word	$3901
	.word	$3901
	.word	$3901
	.word	$3901
	.word	$3901
	.word	$3901
	.word	$3901
	.word	$3901
	.word	$3901
	.word	$3901
	.word	$3901
	.word	$3901
	.word	$3901
	.word	$3901
	.word	$3901
	.word	$3901
	.word	$3901
	.word	$3701
	.word	$3701
	.word	$3701
	.word	$3701
	.word	$3604
	.word	$3708
	.word	$8018
	.word	$3901
	.word	$3901
	.word	$3901
	.word	$3901
	.word	$3901
	.word	$3901
	.word	$3901
	.word	$3901
	.word	$3901
	.word	$3901
	.word	$3901
	.word	$3901
	.word	$3901
	.word	$3901
	.word	$3901
	.word	$3901
	.word	$3901
	.word	$3901
	.word	$3901
	.word	$3901
	.word	$3901
	.word	$3901
	.word	$3901
	.word	$3901
	.word	$3701
	.word	$3701
	.word	$3701
	.word	$3701
	.word	$3604
	.word	$3708
	.word	$8008
	.word	$4708
	.word	$8008
	.word	$4408
	.word	$8008
	.word	$4708
	.word	$8008
	.word	$3710
	.word	$3710
	.word	$3710
	.word	$3708
	.word	$3908
	.word	$3710
	.word	$3710
	.word	$3710
	.word	$3708
	.word	$3908
	.word	$3704
	.word	$3B04
	.word	$4204
	.word	$4704
	.word	$4B04
	.word	$4704
	.word	$5204
	.word	$4B04
	.word	$4708
	.word	$3706
	.word	$3702
	.word	$3708
	.word	$8008
	.word	$4208
	.word	$8004
	.word	$3904
	.word	$4208
	.word	$8004
	.word	$3904
	.word	$4204
	.word	$3904
	.word	$4204
	.word	$4604
	.word	$4908
	.word	$8008
	.word	$4908
	.word	$8004
	.word	$4604
	.word	$4908
	.word	$8004
	.word	$4604
	.word	$4904
	.word	$4604
	.word	$4304
	.word	$4604
	.word	$3B08
	.word	$8008
	.word	$4004
	.word	$4004
	.word	$4204
	.word	$4204
	.word	$4404
	.word	$4404
	.word	$4004
	.word	$4004
	.word	$3B04
	.word	$3B04
	.word	$4004
	.word	$4004
	.word	$4204
	.word	$4204
	.word	$3B04
	.word	$3B04
	.word	$4004
	.word	$4004
	.word	$4204
	.word	$4204
	.word	$4404
	.word	$4404
	.word	$4004
	.word	$4004
	.word	$3B04
	.word	$3B04
	.word	$4004
	.word	$4004
	.word	$4204
	.word	$4204
	.word	$3B04
	.word	$3B04
	.word	$4004
	.word	$4004
	.word	$4204
	.word	$4204
	.word	$4404
	.word	$4404
	.word	$4004
	.word	$4004
	.word	$3B04
	.word	$3B04
	.word	$4004
	.word	$4004
	.word	$4204
	.word	$4204
	.word	$3B04
	.word	$3B04
	.word	$3904
	.word	$3904
	.word	$3B04
	.word	$3B04
	.word	$4004
	.word	$4004
	.word	$3904
	.word	$3904
	.word	$3904
	.word	$3904
	.word	$3A04
	.word	$3A04
	.word	$4004
	.word	$4004
	.word	$3904
	.word	$3904
	.word	$3704
	.word	$3704
	.word	$3604
	.word	$3604
	.word	$3704
	.word	$3704
	.word	$4604
	.word	$4604
	.word	$4704
	.word	$4704
	.word	$4604
	.word	$4604
	.word	$4704
	.word	$3704
	.word	$3604
	.word	$3704
	.word	$3908
	.word	$8004
	.word	$3201
	.word	$3201
	.word	$3201
	.word	$3201
	.word	$3401
	.word	$3401
	.word	$3401
	.word	$3401
	.word	$3601
	.word	$3601
	.word	$3601
	.word	$3601
	.word	$3701
	.word	$3701
	.word	$3701
	.word	$3701
	.word	$3901
	.word	$3901
	.word	$3901
	.word	$3901
	.word	$4001
	.word	$4001
	.word	$4001
	.word	$4001
	.word	$3A04
	.word	$8004
	.word	$3601
	.word	$3601
	.word	$3601
	.word	$3601
	.word	$3701
	.word	$3701
	.word	$3701
	.word	$3701
	.word	$3901
	.word	$3901
	.word	$3901
	.word	$3901
	.word	$3A01
	.word	$3A01
	.word	$3A01
	.word	$3A01
	.word	$4101
	.word	$4101
	.word	$4101
	.word	$4101
	.word	$4401
	.word	$4401
	.word	$4401
	.word	$4401
	.word	$4204
	.word	$8038
	.word	$4B04
	.word	$4B04
	.word	$4B01
	.word	$4B01
	.word	$4B01
	.word	$4B01
	.word	$5004
	.word	$4904
	.word	$4904
	.word	$4901
	.word	$4901
	.word	$4901
	.word	$4901
	.word	$4B04
	.word	$4704
	.word	$4704
	.word	$4701
	.word	$4701
	.word	$4701
	.word	$4701
	.word	$4B04
	.word	$4B01
	.word	$4B01
	.word	$4B01
	.word	$4B01
	.word	$4904
	.word	$4704
	.word	$4204
	.word	$3B08
	.word	$8004
	.word	$4204
	.word	$4708
	.word	$8004
	.word	$4204
	.word	$4704
	.word	$4204
	.word	$4704
	.word	$4B04
	.word	$5208
	.word	$8008
	.word	$5008
	.word	$8004
	.word	$4904
	.word	$5008
	.word	$8004
	.word	$4904
	.word	$5004
	.word	$4904
	.word	$4604
	.word	$4904
	.word	$4208
	.word	$8008
	.word	$4704
	.word	$4704
	.word	$4704
	.word	$4704
	.word	$4704
	.word	$4704
	.word	$4704
	.word	$4704
	.word	$4704
	.word	$4704
	.word	$4704
	.word	$4704
	.word	$4701
	.word	$4701
	.word	$4701
	.word	$4701
	.word	$4B04
	.word	$4401
	.word	$4401
	.word	$4401
	.word	$4401
	.word	$4704
	.word	$4704
	.word	$4704
	.word	$4704
	.word	$4704
	.word	$4704
	.word	$4704
	.word	$4704
	.word	$4704
	.word	$4704
	.word	$4704
	.word	$4704
	.word	$4704
	.word	$4701
	.word	$4701
	.word	$4701
	.word	$4701
	.word	$4B04
	.word	$4401
	.word	$4401
	.word	$4401
	.word	$4401
	.word	$4704
	.word	$4210
	.word	$4210
	.word	$4210
	.word	$4208
	.word	$8028
	.word	$3610
	.word	$3710
	.word	$4008
	.word	$4008
	.word	$3908
	.word	$3908
	.word	$3204
	.word	$8004
	.word	$4204
	.word	$8004
	.word	$4208
	.word	$8028
	.word	$4601
	.word	$4601
	.word	$4601
	.word	$4601
	.word	$4601
	.word	$4601
	.word	$4601
	.word	$4601
	.word	$4601
	.word	$4601
	.word	$4601
	.word	$4601
	.word	$4601
	.word	$4601
	.word	$4601
	.word	$4601
	.word	$4710
	.word	$4008
	.word	$4004
	.word	$4004
	.word	$3908
	.word	$3904
	.word	$3904
	.word	$3704
	.word	$3704
	.word	$3704
	.word	$3704
	.word	$3704
	.word	$3704
	.word	$3704
	.word	$3704
	.word	$3704
	.word	$3704
	.word	$3704
	.word	$3704
	.word	$3704
	.word	$3704
	.word	$3704
	.word	$3704
	.word	$3704
	.word	$4704
	.word	$4704
	.word	$4704
	.word	$4704
	.word	$4704
	.word	$4904
	.word	$4904
	.word	$4704
	.word	$4704
	.word	$4604
	.word	$4604
	.word	$4704
	.word	$4704
	.word	$4404
	.word	$4404
	.word	$4210
	.word	$4410
	.word	$4210
	.word	$4410
	.word	$4208
	.word	$4408
	.word	$4208
	.word	$4408
	.word	$4204
	.word	$3204
	.word	$3204
	.word	$3204
	.word	$3208
	.word	$8020
	.word	$3B04
	.word	$8004
	.word	$3404
	.word	$8004
	.word	$4004
	.word	$8004
	.word	$3904
	.word	$8004
	.word	$3604
	.word	$800C
	.word	$4901
	.word	$4901
	.word	$4901
	.word	$4901
	.word	$4901
	.word	$4901
	.word	$4901
	.word	$4901
	.word	$4704
	.word	$8004
	.word	$4904
	.word	$8004
	.word	$4B10
	.word	$4908
	.word	$8008
	.word	$5201
	.word	$5201
	.word	$5201
	.word	$5201
	.word	$5201
	.word	$5201
	.word	$5201
	.word	$5201
	.word	$5201
	.word	$5201
	.word	$5001
	.word	$5001
	.word	$4B01
	.word	$4B01
	.word	$4901
	.word	$4901
	.word	$4704
	.word	$8004
	.word	$5404
	.word	$8004
	.word	$5004
	.word	$8004
	.word	$4904
	.word	$8004
	.word	$5208
	.word	$8004
	.word	$5004
	.word	$5001
	.word	$5001
	.word	$5001
	.word	$5001
	.word	$4B04
	.word	$8004
	.word	$5004
	.word	$5001
	.word	$5001
	.word	$5001
	.word	$5001
	.word	$4B04
	.word	$8004
	.word	$4004
	.word	$3704
	.word	$3704
	.word	$3904
	.word	$3904
	.word	$3B04
	.word	$3B04
	.word	$3704
	.word	$3704
	.word	$3604
	.word	$3604
	.word	$3704
	.word	$3704
	.word	$3904
	.word	$3904
	.word	$3604
	.word	$3604
	.word	$3704
	.word	$3704
	.word	$3904
	.word	$3904
	.word	$3B04
	.word	$3B04
	.word	$3704
	.word	$3704
	.word	$3604
	.word	$3604
	.word	$3704
	.word	$3704
	.word	$3904
	.word	$3904
	.word	$3604
	.word	$3604
	.word	$3704
	.word	$4704
	.word	$4B04
	.word	$4904
	.word	$4804
	.word	$4404
	.word	$4604
	.word	$4804
	.word	$4904
	.word	$5004
	.word	$4904
	.word	$4704
	.word	$4604
	.word	$4204
	.word	$4404
	.word	$4604
	.word	$4704
	.word	$4704
	.word	$4704
	.word	$4704
	.word	$4704
	.word	$4704
	.word	$4704
	.word	$4704
	.word	$4704
	.word	$4204
	.word	$4204
	.word	$4204
	.word	$4204
	.word	$4204
	.word	$4204
	.word	$4004
	.word	$3B04
	.word	$3704
	.word	$3904
	.word	$3904
	.word	$3B04
	.word	$3B04
	.word	$3704
	.word	$3704
	.word	$3604
	.word	$3604
	.word	$3704
	.word	$3704
	.word	$3904
	.word	$3904
	.word	$3604
	.word	$3604
	.word	$3704
	.word	$4704
	.word	$4904
	.word	$4904
	.word	$4B04
	.word	$4B04
	.word	$4704
	.word	$4704
	.word	$4604
	.word	$4604
	.word	$4704
	.word	$4704
	.word	$4904
	.word	$4904
	.word	$4604
	.word	$4604
	.word	$4704
	.word	$4704
	.word	$4B04
	.word	$4904
	.word	$4804
	.word	$4404
	.word	$4604
	.word	$4804
	.word	$4904
	.word	$5004
	.word	$4904
	.word	$4704
	.word	$4604
	.word	$4204
	.word	$4404
	.word	$4604
	.word	$4704
	.word	$4704
	.word	$4704
	.word	$4704
	.word	$4704
	.word	$4704
	.word	$4704
	.word	$4704
	.word	$4701
	.word	$4701
	.word	$4701
	.word	$4701
	.word	$4904
	.word	$5004
	.word	$5004
	.word	$5004
	.word	$5004
	.word	$5004
	.word	$4B04
	.word	$4904
	.word	$4204
	.word	$4404
	.word	$4604
	.word	$4704
	.word	$4704
	.word	$4904
	.word	$4904
	.word	$4B04
	.word	$3604
	.word	$3704
	.word	$3904
	.word	$3B04
	.word	$3B04
	.word	$4004
	.word	$4004
	.word	$4004
	.word	$4004
	.word	$4104
	.word	$4104
	.word	$4208
	.word	$8008
	.word	$3901
	.word	$3901
	.word	$3901
	.word	$3901
	.word	$3901
	.word	$3901
	.word	$3901
	.word	$3901
	.word	$3901
	.word	$3901
	.word	$3901
	.word	$3901
	.word	$3901
	.word	$3901
	.word	$3901
	.word	$3901
	.word	$3901
	.word	$3901
	.word	$3901
	.word	$3901
	.word	$3901
	.word	$3901
	.word	$3901
	.word	$3901
	.word	$3701
	.word	$3701
	.word	$3701
	.word	$3701
	.word	$3604
	.word	$3708
	.word	$8018
	.word	$3901
	.word	$3901
	.word	$3901
	.word	$3901
	.word	$3901
	.word	$3901
	.word	$3901
	.word	$3901
	.word	$3901
	.word	$3901
	.word	$3901
	.word	$3901
	.word	$3901
	.word	$3901
	.word	$3901
	.word	$3901
	.word	$3901
	.word	$3901
	.word	$3901
	.word	$3901
	.word	$3901
	.word	$3901
	.word	$3901
	.word	$3901
	.word	$3701
	.word	$3701
	.word	$3701
	.word	$3701
	.word	$3604
	.word	$3708
	.word	$8008
	.word	$4708
	.word	$8008
	.word	$4408
	.word	$8008
	.word	$4708
	.word	$8008
	.word	$3710
	.word	$3710
	.word	$3710
	.word	$3708
	.word	$3908
	.word	$3710
	.word	$3710
	.word	$3710
	.word	$3708
	.word	$3908
	.word	$3704
	.word	$3B04
	.word	$4204
	.word	$4704
	.word	$4B04
	.word	$4704
	.word	$5204
	.word	$4B04
	.word	$4708
	.word	$3706
	.word	$3702
	.word	$3708
	.word	$8008
	.word	$0000
_Voice3:
	.word	$3708
	.word	$8004
	.word	$3204
	.word	$3708
	.word	$8004
	.word	$3204
	.word	$3704
	.word	$3204
	.word	$3704
	.word	$3B04
	.word	$3208
	.word	$8008
	.word	$4008
	.word	$8004
	.word	$3904
	.word	$4008
	.word	$8004
	.word	$3904
	.word	$4004
	.word	$3904
	.word	$3604
	.word	$4904
	.word	$4208
	.word	$8008
	.word	$3704
	.word	$3704
	.word	$3704
	.word	$3704
	.word	$3704
	.word	$3704
	.word	$3704
	.word	$3704
	.word	$3704
	.word	$3704
	.word	$3704
	.word	$3704
	.word	$3704
	.word	$3704
	.word	$3704
	.word	$3704
	.word	$3704
	.word	$3704
	.word	$3704
	.word	$3704
	.word	$3704
	.word	$3704
	.word	$3704
	.word	$3704
	.word	$3704
	.word	$3704
	.word	$3704
	.word	$3704
	.word	$3704
	.word	$3704
	.word	$3704
	.word	$3704
	.word	$3704
	.word	$3704
	.word	$3904
	.word	$3904
	.word	$3B04
	.word	$3B04
	.word	$3604
	.word	$3604
	.word	$3704
	.word	$3704
	.word	$3904
	.word	$3904
	.word	$3B08
	.word	$8028
	.word	$3210
	.word	$3410
	.word	$3008
	.word	$3008
	.word	$3208
	.word	$3208
	.word	$2B04
	.word	$8004
	.word	$3204
	.word	$8004
	.word	$3708
	.word	$8008
	.word	$4B10
	.word	$5010
	.word	$3201
	.word	$3201
	.word	$3201
	.word	$3201
	.word	$3201
	.word	$3201
	.word	$3201
	.word	$3201
	.word	$3201
	.word	$3201
	.word	$3201
	.word	$3201
	.word	$3201
	.word	$3201
	.word	$3201
	.word	$3201
	.word	$3410
	.word	$3008
	.word	$3008
	.word	$3208
	.word	$3208
	.word	$3B14
	.word	$3B02
	.word	$3901
	.word	$3B01
	.word	$4004
	.word	$3904
	.word	$4714
	.word	$4702
	.word	$4601
	.word	$4701
	.word	$4904
	.word	$4604
	.word	$3704
	.word	$3704
	.word	$3704
	.word	$3704
	.word	$3704
	.word	$3704
	.word	$3704
	.word	$3704
	.word	$3704
	.word	$3704
	.word	$3604
	.word	$3604
	.word	$3704
	.word	$3704
	.word	$3404
	.word	$3404
	.word	$3204
	.word	$3204
	.word	$3204
	.word	$3204
	.word	$3204
	.word	$3204
	.word	$3204
	.word	$3204
	.word	$3204
	.word	$3204
	.word	$3204
	.word	$3204
	.word	$3204
	.word	$3204
	.word	$3204
	.word	$3204
	.word	$3204
	.word	$3404
	.word	$3604
	.word	$3404
	.word	$3204
	.word	$3404
	.word	$3604
	.word	$3204
	.word	$3704
	.word	$3904
	.word	$3B04
	.word	$3904
	.word	$3704
	.word	$3904
	.word	$3B04
	.word	$3804
	.word	$3904
	.word	$3904
	.word	$3904
	.word	$3904
	.word	$3904
	.word	$3904
	.word	$3904
	.word	$3904
	.word	$3904
	.word	$2904
	.word	$2904
	.word	$2904
	.word	$2908
	.word	$8008
	.word	$490A
	.word	$4702
	.word	$4602
	.word	$4402
	.word	$4204
	.word	$8004
	.word	$3304
	.word	$8004
	.word	$3404
	.word	$8004
	.word	$3204
	.word	$8004
	.word	$3104
	.word	$8004
	.word	$2904
	.word	$800C
	.word	$2A01
	.word	$2A01
	.word	$2A01
	.word	$2A01
	.word	$2A01
	.word	$2A01
	.word	$2A01
	.word	$2A01
	.word	$2B04
	.word	$8004
	.word	$2704
	.word	$8004
	.word	$2908
	.word	$3901
	.word	$3901
	.word	$3901
	.word	$3901
	.word	$3901
	.word	$3901
	.word	$3901
	.word	$3901
	.word	$3901
	.word	$3901
	.word	$3901
	.word	$3901
	.word	$3801
	.word	$3801
	.word	$3801
	.word	$3801
	.word	$3701
	.word	$3701
	.word	$3701
	.word	$3701
	.word	$3401
	.word	$3401
	.word	$3401
	.word	$3401
	.word	$3204
	.word	$8004
	.word	$3404
	.word	$8004
	.word	$3604
	.word	$8004
	.word	$3304
	.word	$8004
	.word	$3404
	.word	$8004
	.word	$3204
	.word	$8004
	.word	$3104
	.word	$8004
	.word	$2904
	.word	$8004
	.word	$2B04
	.word	$8004
	.word	$3704
	.word	$8004
	.word	$3904
	.word	$8004
	.word	$2904
	.word	$8004
	.word	$4604
	.word	$4604
	.word	$4704
	.word	$4704
	.word	$4904
	.word	$4904
	.word	$4604
	.word	$4604
	.word	$4404
	.word	$4404
	.word	$4604
	.word	$4604
	.word	$4704
	.word	$4704
	.word	$4404
	.word	$4404
	.word	$4604
	.word	$4604
	.word	$4704
	.word	$4704
	.word	$4904
	.word	$4904
	.word	$4604
	.word	$4604
	.word	$4404
	.word	$4404
	.word	$4604
	.word	$4604
	.word	$4704
	.word	$4704
	.word	$4404
	.word	$4404
	.word	$4608
	.word	$8008
	.word	$5601
	.word	$5601
	.word	$5601
	.word	$5601
	.word	$5601
	.word	$5601
	.word	$5601
	.word	$5601
	.word	$5601
	.word	$5601
	.word	$5601
	.word	$5601
	.word	$5601
	.word	$5601
	.word	$5601
	.word	$5601
	.word	$5408
	.word	$8008
	.word	$5401
	.word	$5401
	.word	$5401
	.word	$5401
	.word	$5401
	.word	$5401
	.word	$5401
	.word	$5401
	.word	$5401
	.word	$5401
	.word	$5401
	.word	$5401
	.word	$5401
	.word	$5401
	.word	$5401
	.word	$5401
	.word	$5204
	.word	$5604
	.word	$5704
	.word	$5904
	.word	$5701
	.word	$5701
	.word	$5701
	.word	$5701
	.word	$5901
	.word	$5901
	.word	$5B01
	.word	$5B01
	.word	$5904
	.word	$5704
	.word	$5701
	.word	$5701
	.word	$5701
	.word	$5701
	.word	$5604
	.word	$5204
	.word	$5604
	.word	$5601
	.word	$5601
	.word	$5601
	.word	$5601
	.word	$5404
	.word	$5204
	.word	$5104
	.word	$5204
	.word	$4604
	.word	$4704
	.word	$4704
	.word	$4904
	.word	$4904
	.word	$4604
	.word	$4604
	.word	$4404
	.word	$4404
	.word	$4604
	.word	$4604
	.word	$4704
	.word	$4704
	.word	$4404
	.word	$4404
	.word	$4604
	.word	$4604
	.word	$4704
	.word	$4704
	.word	$4904
	.word	$4904
	.word	$4604
	.word	$4604
	.word	$4404
	.word	$4404
	.word	$4604
	.word	$4604
	.word	$4704
	.word	$4704
	.word	$4404
	.word	$4404
	.word	$4608
	.word	$8008
	.word	$5601
	.word	$5601
	.word	$5601
	.word	$5601
	.word	$5601
	.word	$5601
	.word	$5601
	.word	$5601
	.word	$5601
	.word	$5601
	.word	$5601
	.word	$5601
	.word	$5601
	.word	$5601
	.word	$5601
	.word	$5601
	.word	$5408
	.word	$8008
	.word	$5401
	.word	$5401
	.word	$5401
	.word	$5401
	.word	$5401
	.word	$5401
	.word	$5401
	.word	$5401
	.word	$5401
	.word	$5401
	.word	$5401
	.word	$5401
	.word	$5401
	.word	$5401
	.word	$5401
	.word	$5401
	.word	$5204
	.word	$5504
	.word	$5704
	.word	$5904
	.word	$5701
	.word	$5701
	.word	$5701
	.word	$5701
	.word	$5901
	.word	$5901
	.word	$5B01
	.word	$5B01
	.word	$5904
	.word	$5704
	.word	$5701
	.word	$5701
	.word	$5701
	.word	$5701
	.word	$5604
	.word	$5204
	.word	$5604
	.word	$5601
	.word	$5601
	.word	$5601
	.word	$5601
	.word	$5404
	.word	$5204
	.word	$5104
	.word	$3204
	.word	$2904
	.word	$2B04
	.word	$3104
	.word	$3204
	.word	$3204
	.word	$3404
	.word	$3404
	.word	$3604
	.word	$3104
	.word	$3204
	.word	$3404
	.word	$3604
	.word	$3604
	.word	$3704
	.word	$3704
	.word	$3904
	.word	$3904
	.word	$3A04
	.word	$3A04
	.word	$3B08
	.word	$8008
	.word	$3710
	.word	$3910
	.word	$4204
	.word	$8004
	.word	$4204
	.word	$8004
	.word	$4204
	.word	$800C
	.word	$3708
	.word	$8004
	.word	$3204
	.word	$3708
	.word	$8004
	.word	$3204
	.word	$3704
	.word	$3204
	.word	$3704
	.word	$3B04
	.word	$3208
	.word	$8008
	.word	$4008
	.word	$8004
	.word	$3904
	.word	$4008
	.word	$8004
	.word	$3904
	.word	$4004
	.word	$3904
	.word	$3604
	.word	$4904
	.word	$4208
	.word	$8008
	.word	$3704
	.word	$3704
	.word	$3704
	.word	$3704
	.word	$3704
	.word	$3704
	.word	$3704
	.word	$3704
	.word	$3704
	.word	$3704
	.word	$3704
	.word	$3704
	.word	$3704
	.word	$3704
	.word	$3704
	.word	$3704
	.word	$3704
	.word	$3704
	.word	$3704
	.word	$3704
	.word	$3704
	.word	$3704
	.word	$3704
	.word	$3704
	.word	$3704
	.word	$3704
	.word	$3704
	.word	$3704
	.word	$3704
	.word	$3704
	.word	$3704
	.word	$3704
	.word	$3704
	.word	$3704
	.word	$3904
	.word	$3904
	.word	$3B04
	.word	$3B04
	.word	$3604
	.word	$3604
	.word	$3704
	.word	$3704
	.word	$3904
	.word	$3904
	.word	$3B08
	.word	$8028
	.word	$3210
	.word	$3410
	.word	$3008
	.word	$3008
	.word	$3208
	.word	$3208
	.word	$2B04
	.word	$8004
	.word	$3204
	.word	$8004
	.word	$3708
	.word	$8008
	.word	$4B10
	.word	$5010
	.word	$3201
	.word	$3201
	.word	$3201
	.word	$3201
	.word	$3201
	.word	$3201
	.word	$3201
	.word	$3201
	.word	$3201
	.word	$3201
	.word	$3201
	.word	$3201
	.word	$3201
	.word	$3201
	.word	$3201
	.word	$3201
	.word	$3410
	.word	$3008
	.word	$3008
	.word	$3208
	.word	$3208
	.word	$3B14
	.word	$3B02
	.word	$3901
	.word	$3B01
	.word	$4004
	.word	$3904
	.word	$4714
	.word	$4702
	.word	$4601
	.word	$4701
	.word	$4904
	.word	$4604
	.word	$3704
	.word	$3704
	.word	$3704
	.word	$3704
	.word	$3704
	.word	$3704
	.word	$3704
	.word	$3704
	.word	$3704
	.word	$3704
	.word	$3604
	.word	$3604
	.word	$3704
	.word	$3704
	.word	$3404
	.word	$3404
	.word	$3204
	.word	$3204
	.word	$3204
	.word	$3204
	.word	$3204
	.word	$3204
	.word	$3204
	.word	$3204
	.word	$3204
	.word	$3204
	.word	$3204
	.word	$3204
	.word	$3204
	.word	$3204
	.word	$3204
	.word	$3204
	.word	$3204
	.word	$3404
	.word	$3604
	.word	$3404
	.word	$3204
	.word	$3404
	.word	$3604
	.word	$3204
	.word	$3704
	.word	$3904
	.word	$3B04
	.word	$3904
	.word	$3704
	.word	$3904
	.word	$3B04
	.word	$3804
	.word	$3904
	.word	$3904
	.word	$3904
	.word	$3904
	.word	$3904
	.word	$3904
	.word	$3904
	.word	$3904
	.word	$3904
	.word	$2904
	.word	$2904
	.word	$2904
	.word	$2908
	.word	$8008
	.word	$490A
	.word	$4702
	.word	$4602
	.word	$4402
	.word	$4204
	.word	$8004
	.word	$3304
	.word	$8004
	.word	$3404
	.word	$8004
	.word	$3204
	.word	$8004
	.word	$3104
	.word	$8004
	.word	$2904
	.word	$800C
	.word	$2A01
	.word	$2A01
	.word	$2A01
	.word	$2A01
	.word	$2A01
	.word	$2A01
	.word	$2A01
	.word	$2A01
	.word	$2B04
	.word	$8004
	.word	$2704
	.word	$8004
	.word	$2908
	.word	$3901
	.word	$3901
	.word	$3901
	.word	$3901
	.word	$3901
	.word	$3901
	.word	$3901
	.word	$3901
	.word	$3901
	.word	$3901
	.word	$3901
	.word	$3901
	.word	$3801
	.word	$3801
	.word	$3801
	.word	$3801
	.word	$3701
	.word	$3701
	.word	$3701
	.word	$3701
	.word	$3401
	.word	$3401
	.word	$3401
	.word	$3401
	.word	$3204
	.word	$8004
	.word	$3404
	.word	$8004
	.word	$3604
	.word	$8004
	.word	$3304
	.word	$8004
	.word	$3404
	.word	$8004
	.word	$3204
	.word	$8004
	.word	$3104
	.word	$8004
	.word	$2904
	.word	$8004
	.word	$2B04
	.word	$8004
	.word	$3704
	.word	$8004
	.word	$3904
	.word	$8004
	.word	$2904
	.word	$8004
	.word	$4604
	.word	$4604
	.word	$4704
	.word	$4704
	.word	$4904
	.word	$4904
	.word	$4604
	.word	$4604
	.word	$4404
	.word	$4404
	.word	$4604
	.word	$4604
	.word	$4704
	.word	$4704
	.word	$4404
	.word	$4404
	.word	$4604
	.word	$4604
	.word	$4704
	.word	$4704
	.word	$4904
	.word	$4904
	.word	$4604
	.word	$4604
	.word	$4404
	.word	$4404
	.word	$4604
	.word	$4604
	.word	$4704
	.word	$4704
	.word	$4404
	.word	$4404
	.word	$4608
	.word	$8008
	.word	$5601
	.word	$5601
	.word	$5601
	.word	$5601
	.word	$5601
	.word	$5601
	.word	$5601
	.word	$5601
	.word	$5601
	.word	$5601
	.word	$5601
	.word	$5601
	.word	$5601
	.word	$5601
	.word	$5601
	.word	$5601
	.word	$5408
	.word	$8008
	.word	$5401
	.word	$5401
	.word	$5401
	.word	$5401
	.word	$5401
	.word	$5401
	.word	$5401
	.word	$5401
	.word	$5401
	.word	$5401
	.word	$5401
	.word	$5401
	.word	$5401
	.word	$5401
	.word	$5401
	.word	$5401
	.word	$5204
	.word	$5604
	.word	$5704
	.word	$5904
	.word	$5701
	.word	$5701
	.word	$5701
	.word	$5701
	.word	$5901
	.word	$5901
	.word	$5B01
	.word	$5B01
	.word	$5904
	.word	$5704
	.word	$5701
	.word	$5701
	.word	$5701
	.word	$5701
	.word	$5604
	.word	$5204
	.word	$5604
	.word	$5601
	.word	$5601
	.word	$5601
	.word	$5601
	.word	$5404
	.word	$5204
	.word	$5104
	.word	$5204
	.word	$4604
	.word	$4704
	.word	$4704
	.word	$4904
	.word	$4904
	.word	$4604
	.word	$4604
	.word	$4404
	.word	$4404
	.word	$4604
	.word	$4604
	.word	$4704
	.word	$4704
	.word	$4404
	.word	$4404
	.word	$4604
	.word	$4604
	.word	$4704
	.word	$4704
	.word	$4904
	.word	$4904
	.word	$4604
	.word	$4604
	.word	$4404
	.word	$4404
	.word	$4604
	.word	$4604
	.word	$4704
	.word	$4704
	.word	$4404
	.word	$4404
	.word	$4608
	.word	$8008
	.word	$5601
	.word	$5601
	.word	$5601
	.word	$5601
	.word	$5601
	.word	$5601
	.word	$5601
	.word	$5601
	.word	$5601
	.word	$5601
	.word	$5601
	.word	$5601
	.word	$5601
	.word	$5601
	.word	$5601
	.word	$5601
	.word	$5408
	.word	$8008
	.word	$5401
	.word	$5401
	.word	$5401
	.word	$5401
	.word	$5401
	.word	$5401
	.word	$5401
	.word	$5401
	.word	$5401
	.word	$5401
	.word	$5401
	.word	$5401
	.word	$5401
	.word	$5401
	.word	$5401
	.word	$5401
	.word	$5204
	.word	$5504
	.word	$5704
	.word	$5904
	.word	$5701
	.word	$5701
	.word	$5701
	.word	$5701
	.word	$5901
	.word	$5901
	.word	$5B01
	.word	$5B01
	.word	$5904
	.word	$5704
	.word	$5701
	.word	$5701
	.word	$5701
	.word	$5701
	.word	$5604
	.word	$5204
	.word	$5604
	.word	$5601
	.word	$5601
	.word	$5601
	.word	$5601
	.word	$5404
	.word	$5204
	.word	$5104
	.word	$3204
	.word	$2904
	.word	$2B04
	.word	$3104
	.word	$3204
	.word	$3204
	.word	$3404
	.word	$3404
	.word	$3604
	.word	$3104
	.word	$3204
	.word	$3404
	.word	$3604
	.word	$3604
	.word	$3704
	.word	$3704
	.word	$3904
	.word	$3904
	.word	$3A04
	.word	$3A04
	.word	$3B08
	.word	$8008
	.word	$3710
	.word	$3910
	.word	$4204
	.word	$8004
	.word	$4204
	.word	$8004
	.word	$4204
	.word	$800C
	.word	$3208
	.word	$8004
	.word	$2904
	.word	$3208
	.word	$8004
	.word	$2904
	.word	$3204
	.word	$2904
	.word	$3204
	.word	$3604
	.word	$4908
	.word	$8008
	.word	$3908
	.word	$8004
	.word	$3604
	.word	$3908
	.word	$8004
	.word	$3604
	.word	$3904
	.word	$3604
	.word	$3304
	.word	$3604
	.word	$2B08
	.word	$8008
	.word	$4404
	.word	$4404
	.word	$4504
	.word	$4504
	.word	$4704
	.word	$4704
	.word	$4404
	.word	$4404
	.word	$4204
	.word	$4204
	.word	$4404
	.word	$4404
	.word	$4504
	.word	$4504
	.word	$4204
	.word	$4204
	.word	$4404
	.word	$4404
	.word	$4504
	.word	$4504
	.word	$4704
	.word	$4704
	.word	$4404
	.word	$4404
	.word	$4204
	.word	$4204
	.word	$4404
	.word	$4404
	.word	$4504
	.word	$4504
	.word	$4204
	.word	$4204
	.word	$4404
	.word	$4404
	.word	$4504
	.word	$4504
	.word	$4704
	.word	$4704
	.word	$4404
	.word	$4404
	.word	$4204
	.word	$4204
	.word	$4404
	.word	$4404
	.word	$4504
	.word	$4504
	.word	$4204
	.word	$4204
	.word	$4004
	.word	$4004
	.word	$4204
	.word	$4204
	.word	$4404
	.word	$4404
	.word	$4004
	.word	$4004
	.word	$4004
	.word	$4004
	.word	$4204
	.word	$4204
	.word	$4304
	.word	$4304
	.word	$4004
	.word	$4004
	.word	$3A04
	.word	$3A04
	.word	$3904
	.word	$3904
	.word	$3A04
	.word	$3A04
	.word	$4904
	.word	$4904
	.word	$4A04
	.word	$4A04
	.word	$4904
	.word	$4904
	.word	$4A04
	.word	$4A04
	.word	$4904
	.word	$4704
	.word	$4608
	.word	$8004
	.word	$2201
	.word	$2201
	.word	$2201
	.word	$2201
	.word	$2401
	.word	$2401
	.word	$2401
	.word	$2401
	.word	$2601
	.word	$2601
	.word	$2601
	.word	$2601
	.word	$2701
	.word	$2701
	.word	$2701
	.word	$2701
	.word	$2901
	.word	$2901
	.word	$2901
	.word	$2901
	.word	$3001
	.word	$3001
	.word	$3001
	.word	$3001
	.word	$2A04
	.word	$8004
	.word	$2601
	.word	$2601
	.word	$2601
	.word	$2601
	.word	$2701
	.word	$2701
	.word	$2701
	.word	$2701
	.word	$2901
	.word	$2901
	.word	$2901
	.word	$2901
	.word	$2A01
	.word	$2A01
	.word	$2A01
	.word	$2A01
	.word	$2101
	.word	$2101
	.word	$2101
	.word	$2101
	.word	$3401
	.word	$3401
	.word	$3401
	.word	$3401
	.word	$3204
	.word	$8004
	.word	$4204
	.word	$4404
	.word	$4504
	.word	$4704
	.word	$4904
	.word	$4A08
	.word	$4B08
	.word	$5008
	.word	$5108
	.word	$5204
	.word	$5204
	.word	$5201
	.word	$5201
	.word	$5201
	.word	$5201
	.word	$5404
	.word	$5004
	.word	$5004
	.word	$5001
	.word	$5001
	.word	$5001
	.word	$5001
	.word	$5204
	.word	$4B04
	.word	$4B04
	.word	$4B01
	.word	$4B01
	.word	$4B01
	.word	$4B01
	.word	$5204
	.word	$5201
	.word	$5201
	.word	$5201
	.word	$5201
	.word	$5004
	.word	$4B04
	.word	$4904
	.word	$4708
	.word	$8004
	.word	$3204
	.word	$3708
	.word	$8004
	.word	$3204
	.word	$3704
	.word	$3204
	.word	$3704
	.word	$3B04
	.word	$4208
	.word	$8008
	.word	$4008
	.word	$8004
	.word	$3904
	.word	$4008
	.word	$8004
	.word	$3904
	.word	$4004
	.word	$3904
	.word	$3604
	.word	$3904
	.word	$3208
	.word	$8008
	.word	$3704
	.word	$3704
	.word	$3704
	.word	$3704
	.word	$3704
	.word	$3704
	.word	$3704
	.word	$3704
	.word	$3704
	.word	$3704
	.word	$3704
	.word	$3704
	.word	$3704
	.word	$3704
	.word	$3704
	.word	$3704
	.word	$3704
	.word	$3704
	.word	$3704
	.word	$3704
	.word	$3704
	.word	$3704
	.word	$3704
	.word	$3704
	.word	$3704
	.word	$3704
	.word	$3704
	.word	$3704
	.word	$3704
	.word	$3704
	.word	$3704
	.word	$3704
	.word	$3704
	.word	$3704
	.word	$3904
	.word	$3904
	.word	$3B04
	.word	$3B04
	.word	$3704
	.word	$3704
	.word	$3904
	.word	$3904
	.word	$3B04
	.word	$3B04
	.word	$4008
	.word	$8008
	.word	$4B01
	.word	$4B01
	.word	$4B01
	.word	$4B01
	.word	$4B01
	.word	$4B01
	.word	$4B01
	.word	$4B01
	.word	$4B01
	.word	$4B01
	.word	$4B01
	.word	$4B01
	.word	$4B01
	.word	$4B01
	.word	$4B01
	.word	$4B01
	.word	$5010
	.word	$4908
	.word	$4908
	.word	$4708
	.word	$4708
	.word	$4408
	.word	$4408
	.word	$4008
	.word	$3908
	.word	$4204
	.word	$8004
	.word	$4604
	.word	$8004
	.word	$4704
	.word	$800C
	.word	$4B01
	.word	$4B01
	.word	$4B01
	.word	$4B01
	.word	$4B01
	.word	$4B01
	.word	$4B01
	.word	$4B01
	.word	$4B01
	.word	$4B01
	.word	$4B01
	.word	$4B01
	.word	$4B01
	.word	$4B01
	.word	$4B01
	.word	$4B01
	.word	$5010
	.word	$4B01
	.word	$4B01
	.word	$4B01
	.word	$4B01
	.word	$4904
	.word	$4904
	.word	$4904
	.word	$4901
	.word	$4901
	.word	$4901
	.word	$4901
	.word	$4704
	.word	$4704
	.word	$4704
	.word	$4408
	.word	$4404
	.word	$4404
	.word	$4008
	.word	$4004
	.word	$4004
	.word	$3B14
	.word	$3B01
	.word	$3B01
	.word	$3901
	.word	$3B01
	.word	$4001
	.word	$4001
	.word	$4001
	.word	$4001
	.word	$3904
	.word	$4714
	.word	$4701
	.word	$4701
	.word	$4601
	.word	$4701
	.word	$4901
	.word	$4901
	.word	$4901
	.word	$4901
	.word	$4604
	.word	$4B10
	.word	$5010
	.word	$4B08
	.word	$5210
	.word	$5708
	.word	$5610
	.word	$5710
	.word	$5610
	.word	$5710
	.word	$5608
	.word	$5708
	.word	$5608
	.word	$5708
	.word	$5604
	.word	$4204
	.word	$4204
	.word	$4204
	.word	$4208
	.word	$8008
	.word	$4201
	.word	$4201
	.word	$4201
	.word	$4201
	.word	$4201
	.word	$4201
	.word	$4201
	.word	$4201
	.word	$4201
	.word	$4201
	.word	$4001
	.word	$4001
	.word	$3B01
	.word	$3B01
	.word	$3901
	.word	$3901
	.word	$3704
	.word	$8004
	.word	$4404
	.word	$8004
	.word	$4004
	.word	$8004
	.word	$3904
	.word	$8004
	.word	$4204
	.word	$800C
	.word	$4B0A
	.word	$4902
	.word	$4702
	.word	$4602
	.word	$5404
	.word	$8004
	.word	$5004
	.word	$8004
	.word	$3208
	.word	$4201
	.word	$4201
	.word	$4201
	.word	$4201
	.word	$4201
	.word	$4201
	.word	$4201
	.word	$4201
	.word	$4201
	.word	$4201
	.word	$4201
	.word	$4201
	.word	$4101
	.word	$4101
	.word	$4101
	.word	$4101
	.word	$4001
	.word	$4001
	.word	$4001
	.word	$4001
	.word	$3901
	.word	$3901
	.word	$3901
	.word	$3901
	.word	$3704
	.word	$8004
	.word	$3904
	.word	$8004
	.word	$3B04
	.word	$8004
	.word	$3804
	.word	$8004
	.word	$3904
	.word	$8004
	.word	$3704
	.word	$8004
	.word	$3604
	.word	$8004
	.word	$3204
	.word	$8004
	.word	$3404
	.word	$8004
	.word	$3004
	.word	$8004
	.word	$3204
	.word	$8004
	.word	$3204
	.word	$8004
	.word	$2708
	.word	$8018
	.word	$3208
	.word	$8018
	.word	$2708
	.word	$8018
	.word	$3208
	.word	$8018
	.word	$3B08
	.word	$8008
	.word	$4B01
	.word	$4B01
	.word	$4B01
	.word	$4B01
	.word	$4B01
	.word	$4B01
	.word	$4B01
	.word	$4B01
	.word	$4B01
	.word	$4B01
	.word	$4B01
	.word	$4B01
	.word	$4B01
	.word	$4B01
	.word	$4B01
	.word	$4B01
	.word	$4908
	.word	$8008
	.word	$4901
	.word	$4901
	.word	$4901
	.word	$4901
	.word	$4901
	.word	$4901
	.word	$4901
	.word	$4901
	.word	$4901
	.word	$4901
	.word	$4901
	.word	$4901
	.word	$4901
	.word	$4901
	.word	$4901
	.word	$4901
	.word	$4704
	.word	$4B04
	.word	$5004
	.word	$5204
	.word	$5001
	.word	$5001
	.word	$5001
	.word	$5001
	.word	$5201
	.word	$5201
	.word	$5401
	.word	$5401
	.word	$5204
	.word	$5004
	.word	$5001
	.word	$5001
	.word	$5001
	.word	$5001
	.word	$4B04
	.word	$4704
	.word	$4B04
	.word	$4B01
	.word	$4B01
	.word	$4B01
	.word	$4B01
	.word	$4904
	.word	$4704
	.word	$4604
	.word	$4704
	.word	$3B04
	.word	$4004
	.word	$4004
	.word	$4204
	.word	$4204
	.word	$3B04
	.word	$3B04
	.word	$3904
	.word	$3904
	.word	$3B04
	.word	$3B04
	.word	$4004
	.word	$4004
	.word	$3904
	.word	$3904
	.word	$3B04
	.word	$4B04
	.word	$5004
	.word	$5004
	.word	$5204
	.word	$5204
	.word	$4B04
	.word	$4B04
	.word	$4904
	.word	$4904
	.word	$4B04
	.word	$4B04
	.word	$5004
	.word	$5004
	.word	$4904
	.word	$4904
	.word	$8004
	.word	$3704
	.word	$3B04
	.word	$3904
	.word	$3804
	.word	$3404
	.word	$3604
	.word	$3804
	.word	$3904
	.word	$4004
	.word	$3904
	.word	$3704
	.word	$3604
	.word	$3204
	.word	$3404
	.word	$3604
	.word	$3704
	.word	$3704
	.word	$3904
	.word	$3B04
	.word	$4004
	.word	$4004
	.word	$4004
	.word	$4004
	.word	$4204
	.word	$4204
	.word	$4204
	.word	$4204
	.word	$3204
	.word	$3204
	.word	$3204
	.word	$3204
	.word	$3704
	.word	$3204
	.word	$3404
	.word	$3604
	.word	$3704
	.word	$3704
	.word	$3904
	.word	$3904
	.word	$3B04
	.word	$3604
	.word	$3704
	.word	$3904
	.word	$3B04
	.word	$3B04
	.word	$4004
	.word	$4004
	.word	$4204
	.word	$4204
	.word	$4304
	.word	$4304
	.word	$4408
	.word	$8008
	.word	$3001
	.word	$3001
	.word	$3001
	.word	$3001
	.word	$3001
	.word	$3001
	.word	$3001
	.word	$3001
	.word	$3001
	.word	$3001
	.word	$3001
	.word	$3001
	.word	$3001
	.word	$3001
	.word	$3001
	.word	$3001
	.word	$3210
	.word	$2708
	.word	$8018
	.word	$3001
	.word	$3001
	.word	$3001
	.word	$3001
	.word	$3001
	.word	$3001
	.word	$3001
	.word	$3001
	.word	$3001
	.word	$3001
	.word	$3001
	.word	$3001
	.word	$3001
	.word	$3001
	.word	$3001
	.word	$3001
	.word	$3210
	.word	$2708
	.word	$8018
	.word	$3008
	.word	$8008
	.word	$3208
	.word	$8008
	.word	$2704
	.word	$2704
	.word	$2704
	.word	$2704
	.word	$2704
	.word	$2704
	.word	$2704
	.word	$2704
	.word	$2704
	.word	$2704
	.word	$2704
	.word	$2704
	.word	$2704
	.word	$2704
	.word	$2704
	.word	$2704
	.word	$2704
	.word	$2704
	.word	$2704
	.word	$2704
	.word	$2704
	.word	$2704
	.word	$2704
	.word	$2704
	.word	$2704
	.word	$2704
	.word	$2704
	.word	$2704
	.word	$2704
	.word	$2704
	.word	$2704
	.word	$2704
	.word	$2704
	.word	$2B04
	.word	$3204
	.word	$3704
	.word	$3B04
	.word	$3704
	.word	$4204
	.word	$3B04
	.word	$3708
	.word	$2706
	.word	$2702
	.word	$2708
	.word	$8008
	.word	$3208
	.word	$8004
	.word	$2904
	.word	$3208
	.word	$8004
	.word	$2904
	.word	$3204
	.word	$2904
	.word	$3204
	.word	$3604
	.word	$4908
	.word	$8008
	.word	$3908
	.word	$8004
	.word	$3604
	.word	$3908
	.word	$8004
	.word	$3604
	.word	$3904
	.word	$3604
	.word	$3304
	.word	$3604
	.word	$2B08
	.word	$8008
	.word	$4404
	.word	$4404
	.word	$4504
	.word	$4504
	.word	$4704
	.word	$4704
	.word	$4404
	.word	$4404
	.word	$4204
	.word	$4204
	.word	$4404
	.word	$4404
	.word	$4504
	.word	$4504
	.word	$4204
	.word	$4204
	.word	$4404
	.word	$4404
	.word	$4504
	.word	$4504
	.word	$4704
	.word	$4704
	.word	$4404
	.word	$4404
	.word	$4204
	.word	$4204
	.word	$4404
	.word	$4404
	.word	$4504
	.word	$4504
	.word	$4204
	.word	$4204
	.word	$4404
	.word	$4404
	.word	$4504
	.word	$4504
	.word	$4704
	.word	$4704
	.word	$4404
	.word	$4404
	.word	$4204
	.word	$4204
	.word	$4404
	.word	$4404
	.word	$4504
	.word	$4504
	.word	$4204
	.word	$4204
	.word	$4004
	.word	$4004
	.word	$4204
	.word	$4204
	.word	$4404
	.word	$4404
	.word	$4004
	.word	$4004
	.word	$4004
	.word	$4004
	.word	$4204
	.word	$4204
	.word	$4304
	.word	$4304
	.word	$4004
	.word	$4004
	.word	$3A04
	.word	$3A04
	.word	$3904
	.word	$3904
	.word	$3A04
	.word	$3A04
	.word	$4904
	.word	$4904
	.word	$4A04
	.word	$4A04
	.word	$4904
	.word	$4904
	.word	$4A04
	.word	$4A04
	.word	$4904
	.word	$4704
	.word	$4608
	.word	$8004
	.word	$2201
	.word	$2201
	.word	$2201
	.word	$2201
	.word	$2401
	.word	$2401
	.word	$2401
	.word	$2401
	.word	$2601
	.word	$2601
	.word	$2601
	.word	$2601
	.word	$2701
	.word	$2701
	.word	$2701
	.word	$2701
	.word	$2901
	.word	$2901
	.word	$2901
	.word	$2901
	.word	$3001
	.word	$3001
	.word	$3001
	.word	$3001
	.word	$2A04
	.word	$8004
	.word	$2601
	.word	$2601
	.word	$2601
	.word	$2601
	.word	$2701
	.word	$2701
	.word	$2701
	.word	$2701
	.word	$2901
	.word	$2901
	.word	$2901
	.word	$2901
	.word	$2A01
	.word	$2A01
	.word	$2A01
	.word	$2A01
	.word	$2101
	.word	$2101
	.word	$2101
	.word	$2101
	.word	$3401
	.word	$3401
	.word	$3401
	.word	$3401
	.word	$3204
	.word	$8004
	.word	$4204
	.word	$4404
	.word	$4504
	.word	$4704
	.word	$4904
	.word	$4A08
	.word	$4B08
	.word	$5008
	.word	$5108
	.word	$5204
	.word	$5204
	.word	$5201
	.word	$5201
	.word	$5201
	.word	$5201
	.word	$5404
	.word	$5004
	.word	$5004
	.word	$5001
	.word	$5001
	.word	$5001
	.word	$5001
	.word	$5204
	.word	$4B04
	.word	$4B04
	.word	$4B01
	.word	$4B01
	.word	$4B01
	.word	$4B01
	.word	$5204
	.word	$5201
	.word	$5201
	.word	$5201
	.word	$5201
	.word	$5004
	.word	$4B04
	.word	$4904
	.word	$4708
	.word	$8004
	.word	$3204
	.word	$3708
	.word	$8004
	.word	$3204
	.word	$3704
	.word	$3204
	.word	$3704
	.word	$3B04
	.word	$4208
	.word	$8008
	.word	$4008
	.word	$8004
	.word	$3904
	.word	$4008
	.word	$8004
	.word	$3904
	.word	$4004
	.word	$3904
	.word	$3604
	.word	$3904
	.word	$3208
	.word	$8008
	.word	$3704
	.word	$3704
	.word	$3704
	.word	$3704
	.word	$3704
	.word	$3704
	.word	$3704
	.word	$3704
	.word	$3704
	.word	$3704
	.word	$3704
	.word	$3704
	.word	$3704
	.word	$3704
	.word	$3704
	.word	$3704
	.word	$3704
	.word	$3704
	.word	$3704
	.word	$3704
	.word	$3704
	.word	$3704
	.word	$3704
	.word	$3704
	.word	$3704
	.word	$3704
	.word	$3704
	.word	$3704
	.word	$3704
	.word	$3704
	.word	$3704
	.word	$3704
	.word	$3704
	.word	$3704
	.word	$3904
	.word	$3904
	.word	$3B04
	.word	$3B04
	.word	$3704
	.word	$3704
	.word	$3904
	.word	$3904
	.word	$3B04
	.word	$3B04
	.word	$4008
	.word	$8008
	.word	$4B01
	.word	$4B01
	.word	$4B01
	.word	$4B01
	.word	$4B01
	.word	$4B01
	.word	$4B01
	.word	$4B01
	.word	$4B01
	.word	$4B01
	.word	$4B01
	.word	$4B01
	.word	$4B01
	.word	$4B01
	.word	$4B01
	.word	$4B01
	.word	$5010
	.word	$4908
	.word	$4908
	.word	$4708
	.word	$4708
	.word	$4408
	.word	$4408
	.word	$4008
	.word	$3908
	.word	$4204
	.word	$8004
	.word	$4604
	.word	$8004
	.word	$4704
	.word	$800C
	.word	$4B01
	.word	$4B01
	.word	$4B01
	.word	$4B01
	.word	$4B01
	.word	$4B01
	.word	$4B01
	.word	$4B01
	.word	$4B01
	.word	$4B01
	.word	$4B01
	.word	$4B01
	.word	$4B01
	.word	$4B01
	.word	$4B01
	.word	$4B01
	.word	$5010
	.word	$4B01
	.word	$4B01
	.word	$4B01
	.word	$4B01
	.word	$4904
	.word	$4904
	.word	$4904
	.word	$4901
	.word	$4901
	.word	$4901
	.word	$4901
	.word	$4704
	.word	$4704
	.word	$4704
	.word	$4408
	.word	$4404
	.word	$4404
	.word	$4008
	.word	$4004
	.word	$4004
	.word	$3B14
	.word	$3B01
	.word	$3B01
	.word	$3901
	.word	$3B01
	.word	$4001
	.word	$4001
	.word	$4001
	.word	$4001
	.word	$3904
	.word	$4714
	.word	$4701
	.word	$4701
	.word	$4601
	.word	$4701
	.word	$4901
	.word	$4901
	.word	$4901
	.word	$4901
	.word	$4604
	.word	$4B10
	.word	$5010
	.word	$4B08
	.word	$5210
	.word	$5708
	.word	$5610
	.word	$5710
	.word	$5610
	.word	$5710
	.word	$5608
	.word	$5708
	.word	$5608
	.word	$5708
	.word	$5604
	.word	$4204
	.word	$4204
	.word	$4204
	.word	$4208
	.word	$8008
	.word	$4201
	.word	$4201
	.word	$4201
	.word	$4201
	.word	$4201
	.word	$4201
	.word	$4201
	.word	$4201
	.word	$4201
	.word	$4201
	.word	$4001
	.word	$4001
	.word	$3B01
	.word	$3B01
	.word	$3901
	.word	$3901
	.word	$3704
	.word	$8004
	.word	$4404
	.word	$8004
	.word	$4004
	.word	$8004
	.word	$3904
	.word	$8004
	.word	$4204
	.word	$800C
	.word	$4B0A
	.word	$4902
	.word	$4702
	.word	$4602
	.word	$5404
	.word	$8004
	.word	$5004
	.word	$8004
	.word	$3208
	.word	$4201
	.word	$4201
	.word	$4201
	.word	$4201
	.word	$4201
	.word	$4201
	.word	$4201
	.word	$4201
	.word	$4201
	.word	$4201
	.word	$4201
	.word	$4201
	.word	$4101
	.word	$4101
	.word	$4101
	.word	$4101
	.word	$4001
	.word	$4001
	.word	$4001
	.word	$4001
	.word	$3901
	.word	$3901
	.word	$3901
	.word	$3901
	.word	$3704
	.word	$8004
	.word	$3904
	.word	$8004
	.word	$3B04
	.word	$8004
	.word	$3804
	.word	$8004
	.word	$3904
	.word	$8004
	.word	$3704
	.word	$8004
	.word	$3604
	.word	$8004
	.word	$3204
	.word	$8004
	.word	$3404
	.word	$8004
	.word	$3004
	.word	$8004
	.word	$3204
	.word	$8004
	.word	$3204
	.word	$8004
	.word	$2708
	.word	$8018
	.word	$3208
	.word	$8018
	.word	$2708
	.word	$8018
	.word	$3208
	.word	$8018
	.word	$3B08
	.word	$8008
	.word	$4B01
	.word	$4B01
	.word	$4B01
	.word	$4B01
	.word	$4B01
	.word	$4B01
	.word	$4B01
	.word	$4B01
	.word	$4B01
	.word	$4B01
	.word	$4B01
	.word	$4B01
	.word	$4B01
	.word	$4B01
	.word	$4B01
	.word	$4B01
	.word	$4908
	.word	$8008
	.word	$4901
	.word	$4901
	.word	$4901
	.word	$4901
	.word	$4901
	.word	$4901
	.word	$4901
	.word	$4901
	.word	$4901
	.word	$4901
	.word	$4901
	.word	$4901
	.word	$4901
	.word	$4901
	.word	$4901
	.word	$4901
	.word	$4704
	.word	$4B04
	.word	$5004
	.word	$5204
	.word	$5001
	.word	$5001
	.word	$5001
	.word	$5001
	.word	$5201
	.word	$5201
	.word	$5401
	.word	$5401
	.word	$5204
	.word	$5004
	.word	$5001
	.word	$5001
	.word	$5001
	.word	$5001
	.word	$4B04
	.word	$4704
	.word	$4B04
	.word	$4B01
	.word	$4B01
	.word	$4B01
	.word	$4B01
	.word	$4904
	.word	$4704
	.word	$4604
	.word	$4704
	.word	$3B04
	.word	$4004
	.word	$4004
	.word	$4204
	.word	$4204
	.word	$3B04
	.word	$3B04
	.word	$3904
	.word	$3904
	.word	$3B04
	.word	$3B04
	.word	$4004
	.word	$4004
	.word	$3904
	.word	$3904
	.word	$3B04
	.word	$4B04
	.word	$5004
	.word	$5004
	.word	$5204
	.word	$5204
	.word	$4B04
	.word	$4B04
	.word	$4904
	.word	$4904
	.word	$4B04
	.word	$4B04
	.word	$5004
	.word	$5004
	.word	$4904
	.word	$4904
	.word	$8004
	.word	$3704
	.word	$3B04
	.word	$3904
	.word	$3804
	.word	$3404
	.word	$3604
	.word	$3804
	.word	$3904
	.word	$4004
	.word	$3904
	.word	$3704
	.word	$3604
	.word	$3204
	.word	$3404
	.word	$3604
	.word	$3704
	.word	$3704
	.word	$3904
	.word	$3B04
	.word	$4004
	.word	$4004
	.word	$4004
	.word	$4004
	.word	$4204
	.word	$4204
	.word	$4204
	.word	$4204
	.word	$3204
	.word	$3204
	.word	$3204
	.word	$3204
	.word	$3704
	.word	$3204
	.word	$3404
	.word	$3604
	.word	$3704
	.word	$3704
	.word	$3904
	.word	$3904
	.word	$3B04
	.word	$3604
	.word	$3704
	.word	$3904
	.word	$3B04
	.word	$3B04
	.word	$4004
	.word	$4004
	.word	$4204
	.word	$4204
	.word	$4304
	.word	$4304
	.word	$4408
	.word	$8008
	.word	$3001
	.word	$3001
	.word	$3001
	.word	$3001
	.word	$3001
	.word	$3001
	.word	$3001
	.word	$3001
	.word	$3001
	.word	$3001
	.word	$3001
	.word	$3001
	.word	$3001
	.word	$3001
	.word	$3001
	.word	$3001
	.word	$3210
	.word	$2708
	.word	$8018
	.word	$3001
	.word	$3001
	.word	$3001
	.word	$3001
	.word	$3001
	.word	$3001
	.word	$3001
	.word	$3001
	.word	$3001
	.word	$3001
	.word	$3001
	.word	$3001
	.word	$3001
	.word	$3001
	.word	$3001
	.word	$3001
	.word	$3210
	.word	$2708
	.word	$8018
	.word	$3008
	.word	$8008
	.word	$3208
	.word	$8008
	.word	$2704
	.word	$2704
	.word	$2704
	.word	$2704
	.word	$2704
	.word	$2704
	.word	$2704
	.word	$2704
	.word	$2704
	.word	$2704
	.word	$2704
	.word	$2704
	.word	$2704
	.word	$2704
	.word	$2704
	.word	$2704
	.word	$2704
	.word	$2704
	.word	$2704
	.word	$2704
	.word	$2704
	.word	$2704
	.word	$2704
	.word	$2704
	.word	$2704
	.word	$2704
	.word	$2704
	.word	$2704
	.word	$2704
	.word	$2704
	.word	$2704
	.word	$2704
	.word	$2704
	.word	$2B04
	.word	$3204
	.word	$3704
	.word	$3B04
	.word	$3704
	.word	$4204
	.word	$3B04
	.word	$3708
	.word	$2706
	.word	$2702
	.word	$2708
	.word	$8008
	.word	$0000
_FreqTab:
	.dword	$00008B38
	.dword	$00009381
	.dword	$00009C45
	.dword	$0000A590
	.dword	$0000AF68
	.dword	$0000B9D6
	.dword	$0000C4E4
	.dword	$0000D099
	.dword	$0000DCFF
	.dword	$0000EA24
	.dword	$0000F810
	.dword	$000106D1
_V1:
	.byte	$01
	.byte	$11
	.byte	$00
	.word	$0000
	.addr	_Voice1
	.word	$D400
_V2:
	.byte	$02
	.byte	$41
	.byte	$00
	.word	$0000
	.addr	_Voice2
	.word	$D407
_V3:
	.byte	$04
	.byte	$11
	.byte	$00
	.word	$0000
	.addr	_Voice3
	.word	$D40E
_V:
	.addr	_V1
	.addr	_V2
	.addr	_V3

.segment	"RODATA"

L1F91:
	.byte	$D0,$4F,$52,$54,$45,$44,$20,$54,$4F,$20,$54,$48,$45,$20,$D3,$C9
	.byte	$C4,$20,$49,$4E,$20,$31,$39,$38,$37,$20,$42,$59,$00
L1FA0:
	.byte	$28,$55,$4C,$4C,$52,$49,$43,$48,$40,$56,$4F,$4E,$2D,$42,$41,$53
	.byte	$53,$45,$57,$49,$54,$5A,$2E,$44,$45,$29,$00
L1F97:
	.byte	$28,$4A,$4F,$41,$43,$48,$49,$4D,$40,$56,$4F,$4E,$2D,$42,$41,$53
	.byte	$53,$45,$57,$49,$54,$5A,$2E,$44,$45,$29,$00
L1F8B:
	.byte	$22,$C5,$49,$4E,$45,$20,$4B,$4C,$45,$49,$4E,$45,$20,$CE,$41,$43
	.byte	$48,$54,$4D,$55,$53,$49,$4B,$22,$00
L1FA9:
	.byte	$D0,$52,$45,$53,$53,$20,$41,$4E,$59,$20,$4B,$45,$59,$20,$54,$4F
	.byte	$20,$51,$55,$49,$54,$2E,$2E,$2E,$00
L1F88:
	.byte	$D7,$4F,$4C,$46,$47,$41,$4E,$47,$20,$C1,$4D,$41,$44,$45,$55,$53
	.byte	$20,$CD,$4F,$5A,$41,$52,$54,$00
L1F9D:
	.byte	$D5,$4C,$4C,$52,$49,$43,$48,$20,$56,$4F,$4E,$20,$C2,$41,$53,$53
	.byte	$45,$57,$49,$54,$5A,$00
L1F94:
	.byte	$CA,$4F,$41,$43,$48,$49,$4D,$20,$56,$4F,$4E,$20,$C2,$41,$53,$53
	.byte	$45,$57,$49,$54,$5A,$00
L1FA6	:=	L1F9D+0
L1FA3:
	.byte	$C3,$20,$C9,$4D,$50,$4C,$45,$4D,$45,$4E,$54,$41,$54,$49,$4F,$4E
	.byte	$20,$42,$59,$00
L1FFC:
	.byte	$25,$30,$32,$44,$3A,$25,$30,$32,$44,$00
L1F8E:
	.byte	$28,$CB,$D6,$20,$35,$32,$35,$29,$00
L1F9A:
	.byte	$41,$4E,$44,$00

.segment	"BSS"

_XSize:
	.res	1,$00
_YSize:
	.res	1,$00
_NextClock:
	.res	1,$00
_StartTime:
	.res	4,$00
_Done:
	.res	1,$00

; ---------------------------------------------------------------
; void __near__ MakeTeeLine (unsigned char)
; ---------------------------------------------------------------

.segment	"CODE"

.proc	_MakeTeeLine: near

	.dbg	func, "MakeTeeLine", "00", static, "_MakeTeeLine"
	.dbg	sym, "Y", "00", auto, 0

.segment	"CODE"

;
; {
;
	.dbg	line, "nachtm.c", 939
	jsr     pusha
;
; cputcxy (0, Y, CH_LTEE);
;
	.dbg	line, "nachtm.c", 940
	jsr     decsp2
	lda     #$00
	ldy     #$01
	sta     (sp),y
	iny
	lda     (sp),y
	ldy     #$00
	sta     (sp),y
	lda     #$AB
	jsr     _cputcxy
;
; chline (XSize - 2);
;
	.dbg	line, "nachtm.c", 941
	lda     _XSize
	sec
	sbc     #$02
	jsr     _chline
;
; cputc (CH_RTEE);
;
	.dbg	line, "nachtm.c", 942
	lda     #$B3
	jsr     _cputc
;
; }
;
	.dbg	line, "nachtm.c", 943
	jmp     incsp1
	.dbg	line

.endproc

; ---------------------------------------------------------------
; void __near__ MakeNiceScreen (void)
; ---------------------------------------------------------------

.segment	"CODE"

.proc	_MakeNiceScreen: near

	.dbg	func, "MakeNiceScreen", "00", static, "_MakeNiceScreen"
	.dbg	sym, "T", "00", register, "regbank", 4
	.dbg	sym, "I", "00", auto, -3
	.dbg	sym, "X", "00", auto, -4

.segment	"DATA"

L1F86:
	.byte	$02
	.addr	L1F88
	.byte	$04
	.addr	L1F8B
	.byte	$05
	.addr	L1F8E
	.byte	$09
	.addr	L1F91
	.byte	$0B
	.addr	L1F94
	.byte	$0C
	.addr	L1F97
	.byte	$0D
	.addr	L1F9A
	.byte	$0E
	.addr	L1F9D
	.byte	$0F
	.addr	L1FA0
	.byte	$12
	.addr	L1FA3
	.byte	$13
	.addr	L1FA6
	.byte	$17
	.addr	L1FA9

.segment	"CODE"

;
; register const TextDesc* T;
;
	.dbg	line, "nachtm.c", 969
	lda     regbank+4
	ldx     regbank+5
	jsr     pushax
;
; textcolor (COLOR_GRAY3);
;
	.dbg	line, "nachtm.c", 977
	jsr     decsp2
	lda     #$0F
	jsr     _textcolor
;
; bordercolor (COLOR_BLACK);
;
	.dbg	line, "nachtm.c", 979
	lda     #$00
	jsr     _bordercolor
;
; bgcolor (COLOR_BLACK);
;
	.dbg	line, "nachtm.c", 980
	lda     #$00
	jsr     _bgcolor
;
; clrscr ();
;
	.dbg	line, "nachtm.c", 981
	jsr     _clrscr
;
; cursor (0);
;
	.dbg	line, "nachtm.c", 982
	lda     #$00
	jsr     _cursor
;
; cputcxy (0, 0, CH_ULCORNER);
;
	.dbg	line, "nachtm.c", 985
	jsr     decsp2
	lda     #$00
	ldy     #$01
	sta     (sp),y
	dey
	sta     (sp),y
	lda     #$B0
	jsr     _cputcxy
;
; chline (XSize - 2);
;
	.dbg	line, "nachtm.c", 986
	lda     _XSize
	sec
	sbc     #$02
	jsr     _chline
;
; cputc (CH_URCORNER);
;
	.dbg	line, "nachtm.c", 987
	lda     #$AE
	jsr     _cputc
;
; cvlinexy (0, 1, 23);
;
	.dbg	line, "nachtm.c", 990
	jsr     decsp2
	lda     #$00
	ldy     #$01
	sta     (sp),y
	tya
	dey
	sta     (sp),y
	lda     #$17
	jsr     _cvlinexy
;
; cputc (CH_LLCORNER);
;
	.dbg	line, "nachtm.c", 993
	lda     #$AD
	jsr     _cputc
;
; chline (XSize - 2);
;
	.dbg	line, "nachtm.c", 994
	lda     _XSize
	sec
	sbc     #$02
	jsr     _chline
;
; cputc (CH_LRCORNER);
;
	.dbg	line, "nachtm.c", 995
	lda     #$BD
	jsr     _cputc
;
; cvlinexy (XSize - 1, 1, 23);
;
	.dbg	line, "nachtm.c", 998
	jsr     decsp2
	lda     _XSize
	sec
	sbc     #$01
	ldy     #$01
	sta     (sp),y
	tya
	dey
	sta     (sp),y
	lda     #$17
	jsr     _cvlinexy
;
; MakeTeeLine (7);
;
	.dbg	line, "nachtm.c", 1001
	lda     #$07
	jsr     _MakeTeeLine
;
; MakeTeeLine (22);
;
	.dbg	line, "nachtm.c", 1002
	lda     #$16
	jsr     _MakeTeeLine
;
; for (I = 0, T = Text; I < sizeof (Text) / sizeof (Text [0]); ++I) {
;
	.dbg	line, "nachtm.c", 1005
	lda     #$00
	ldy     #$01
	sta     (sp),y
	lda     #>(L1F86)
	sta     regbank+4+1
	lda     #<(L1F86)
	sta     regbank+4
L20BF:	lda     (sp),y
	cmp     #$0C
	bcs     L1FD2
;
; X = (XSize - strlen (T->Msg)) / 2;
;
	.dbg	line, "nachtm.c", 1006
	lda     _XSize
	jsr     pusha0
	ldy     #$02
	lda     (regbank+4),y
	tax
	dey
	lda     (regbank+4),y
	jsr     _strlen
	jsr     tossubax
	jsr     shrax1
	ldy     #$00
	sta     (sp),y
;
; cputsxy (X, T->Y, T->Msg);
;
	.dbg	line, "nachtm.c", 1007
	jsr     decsp2
	ldy     #$02
	lda     (sp),y
	dey
	sta     (sp),y
	dey
	lda     (regbank+4),y
	sta     (sp),y
	ldy     #$02
	lda     (regbank+4),y
	tax
	dey
	lda     (regbank+4),y
	jsr     _cputsxy
;
; ++T;
;
	.dbg	line, "nachtm.c", 1008
	lda     #$03
	clc
	adc     regbank+4
	sta     regbank+4
	bcc     L1FE7
	inc     regbank+4+1
;
; for (I = 0, T = Text; I < sizeof (Text) / sizeof (Text [0]); ++I) {
;
	.dbg	line, "nachtm.c", 1005
L1FE7:	ldy     #$01
	clc
	tya
	adc     (sp),y
	sta     (sp),y
	jmp     L20BF
;
; }
;
	.dbg	line, "nachtm.c", 1010
L1FD2:	iny
	lda     (sp),y
	sta     regbank+4
	iny
	lda     (sp),y
	sta     regbank+5
	jmp     incsp4
	.dbg	line

.endproc

; ---------------------------------------------------------------
; void __near__ TimeSync (void)
; ---------------------------------------------------------------

.segment	"CODE"

.proc	_TimeSync: near

	.dbg	func, "TimeSync", "00", static, "_TimeSync"

.segment	"BSS"

L1FE9:
	.res	1,$00

.segment	"CODE"

;
; Clock = clock ();
;
	.dbg	line, "nachtm.c", 1020
L1FEA:	jsr     _clock
	sta     L1FE9
;
; } while (Clock != NextClock);
;
	.dbg	line, "nachtm.c", 1021
	lda     _NextClock
	cmp     L1FE9
	bne     L1FEA
;
; NextClock = Clock + TICKS_PER_TONE;
;
	.dbg	line, "nachtm.c", 1022
	lda     L1FE9
	clc
	adc     #$04
	sta     _NextClock
;
; }
;
	.dbg	line, "nachtm.c", 1023
	rts
	.dbg	line

.endproc

; ---------------------------------------------------------------
; void __near__ DisplayTime (void)
; ---------------------------------------------------------------

.segment	"CODE"

.proc	_DisplayTime: near

	.dbg	func, "DisplayTime", "00", static, "_DisplayTime"
	.dbg	sym, "Time", "00", auto, -4
	.dbg	sym, "Sec", "00", auto, -6
	.dbg	sym, "Min", "00", auto, -8

.segment	"CODE"

;
; clock_t Time = (clock () - StartTime) / CLOCKS_PER_SEC;
;
	.dbg	line, "nachtm.c", 1030
	jsr     _clock
	jsr     pusheax
	lda     _StartTime+3
	sta     sreg+1
	lda     _StartTime+2
	sta     sreg
	ldx     _StartTime+1
	lda     _StartTime
	jsr     tossubeax
	jsr     pusheax
	ldx     #$00
	lda     #$3C
	jsr     tosudiv0ax
	jsr     pusheax
;
; unsigned Sec = Time % 60;
;
	.dbg	line, "nachtm.c", 1031
	jsr     ldeax0sp
	jsr     pusheax
	ldx     #$00
	lda     #$3C
	jsr     tosumod0ax
	jsr     pushax
;
; unsigned Min = Time / 60;
;
	.dbg	line, "nachtm.c", 1032
	ldy     #$05
	jsr     ldeaxysp
	jsr     pusheax
	ldx     #$00
	lda     #$3C
	jsr     tosudiv0ax
	jsr     pushax
;
; gotoxy (1, 0);
;
	.dbg	line, "nachtm.c", 1034
	lda     #$01
	jsr     pusha
	lda     #$00
	jsr     _gotoxy
;
; cprintf ("%02d:%02d", Min, Sec);
;
	.dbg	line, "nachtm.c", 1035
	lda     #<(L1FFC)
	ldx     #>(L1FFC)
	jsr     pushax
	ldy     #$05
	jsr     pushwysp
	ldy     #$09
	jsr     pushwysp
	ldy     #$06
	jsr     _cprintf
;
; }
;
	.dbg	line, "nachtm.c", 1036
	jmp     incsp8
	.dbg	line

.endproc

; ---------------------------------------------------------------
; int __near__ main (void)
; ---------------------------------------------------------------

.segment	"CODE"

.proc	_main: near

	.dbg	func, "main", "00", extern, "_main"
	.dbg	sym, "I", "00", auto, -1
	.dbg	sym, "Tone", "00", auto, -2
	.dbg	sym, "Octave", "00", auto, -3
	.dbg	sym, "Val", "00", auto, -5
	.dbg	sym, "Voice", "00", auto, -7
	.dbg	sym, "VC", "00", register, "regbank", 4

.segment	"CODE"

;
; register VoiceCtrl* VC;
;
	.dbg	line, "nachtm.c", 1060
	jsr     decsp7
	lda     regbank+4
	ldx     regbank+5
	jsr     pushax
;
; DbgInit (0);
;
	.dbg	line, "nachtm.c", 1063
	ldx     #$00
	txa
	jsr     _DbgInit
;
; screensize (&XSize, &YSize);
;
	.dbg	line, "nachtm.c", 1066
	lda     #<(_XSize)
	ldx     #>(_XSize)
	jsr     pushax
	lda     #<(_YSize)
	ldx     #>(_YSize)
	jsr     _screensize
;
; MakeNiceScreen ();
;
	.dbg	line, "nachtm.c", 1069
	jsr     _MakeNiceScreen
;
; outw (&SID.v1.pw, 0x0800);
;
	.dbg	line, "nachtm.c", 1072
	ldx     #$08
	lda     #$00
	sta     $D402
	stx     $D402+1
;
; outb (&SID.v1.ad, 0x33);
;
	.dbg	line, "nachtm.c", 1073
	lda     #$33
	sta     $D405
;
; outb (&SID.v1.sr, 0xF0);
;
	.dbg	line, "nachtm.c", 1074
	lda     #$F0
	sta     $D406
;
; outw (&SID.v2.pw, 0x0800);
;
	.dbg	line, "nachtm.c", 1075
	lda     #$00
	sta     $D409
	stx     $D409+1
;
; outb (&SID.v2.ad, 0x77);
;
	.dbg	line, "nachtm.c", 1076
	lda     #$77
	sta     $D40C
;
; outb (&SID.v2.sr, 0x74);
;
	.dbg	line, "nachtm.c", 1077
	lda     #$74
	sta     $D40D
;
; outw (&SID.v3.pw, 0x0800);
;
	.dbg	line, "nachtm.c", 1078
	lda     #$00
	sta     $D410
	stx     $D410+1
;
; outb (&SID.v3.ad, 0x77);
;
	.dbg	line, "nachtm.c", 1079
	lda     #$77
	sta     $D413
;
; outb (&SID.v3.sr, 0xD2);
;
	.dbg	line, "nachtm.c", 1080
	lda     #$D2
	sta     $D414
;
; outw (&SID.flt_freq, 0xF0F0);
;
	.dbg	line, "nachtm.c", 1081
	lda     #$F0
	sta     $D415
	sta     $D415+1
;
; outb (&SID.flt_ctrl, 0xF2);
;
	.dbg	line, "nachtm.c", 1082
	lda     #$F2
	sta     $D417
;
; outb (&SID.amp, 0x5F);
;
	.dbg	line, "nachtm.c", 1083
	lda     #$5F
	sta     $D418
;
; NextClock = StartTime = clock ();
;
	.dbg	line, "nachtm.c", 1086
	jsr     _clock
	sta     _StartTime
	stx     _StartTime+1
	ldy     sreg
	sty     _StartTime+2
	ldy     sreg+1
	sty     _StartTime+3
	sta     _NextClock
;
; NextClock += TICKS_PER_TONE;
;
	.dbg	line, "nachtm.c", 1087
	lda     #$04
	clc
	adc     _NextClock
	sta     _NextClock
;
; while (Done != 0x07) {
;
	.dbg	line, "nachtm.c", 1090
	jmp     L20C8
;
; DisplayTime ();
;
	.dbg	line, "nachtm.c", 1093
L2054:	jsr     _DisplayTime
;
; TimeSync ();
;
	.dbg	line, "nachtm.c", 1096
	jsr     _TimeSync
;
; if (kbhit ()) {
;
	.dbg	line, "nachtm.c", 1099
	jsr     _kbhit
	tax
	beq     L20C6
;
; if (cgetc () == 'd') {
;
	.dbg	line, "nachtm.c", 1100
	jsr     _cgetc
	cmp     #$44
	jne     L2055
;
; BREAK ();
;
	.dbg	line, "nachtm.c", 1102
	brk
;
; for (I = 0; I < 3; ++I) {
;
	.dbg	line, "nachtm.c", 1110
	lda     #$00
L20C6:	ldy     #$08
L20C3:	sta     (sp),y
	cmp     #$03
	jcs     L20C8
;
; VC = V [I];
;
	.dbg	line, "nachtm.c", 1113
	ldx     #$00
	lda     (sp),y
	asl     a
	bcc     L20C4
	inx
	clc
L20C4:	adc     #<(_V)
	sta     ptr1
	txa
	adc     #>(_V)
	sta     ptr1+1
	ldy     #$01
	lda     (ptr1),y
	tax
	dey
	lda     (ptr1),y
	sta     regbank+4
	stx     regbank+4+1
;
; Voice = VC->Voice;
;
	.dbg	line, "nachtm.c", 1114
	ldy     #$08
	lda     (regbank+4),y
	tax
	dey
	lda     (regbank+4),y
	ldy     #$02
	jsr     staxysp
;
; if (Done & VC->DoneMask) {
;
	.dbg	line, "nachtm.c", 1117
	ldy     #$00
	lda     (regbank+4),y
	and     _Done
	pha
	pla
;
; continue;
;
	.dbg	line, "nachtm.c", 1119
	jne     L2063
;
; if (VC->Ticks == 0) {
;
	.dbg	line, "nachtm.c", 1123
	ldy     #$02
	lda     (regbank+4),y
	jne     L2070
;
; if ((Val = *VC->Data) == 0) {
;
	.dbg	line, "nachtm.c", 1125
	ldy     #$06
	lda     (regbank+4),y
	tax
	dey
	lda     (regbank+4),y
	sta     ptr1
	stx     ptr1+1
	ldy     #$01
	lda     (ptr1),y
	tax
	dey
	lda     (ptr1),y
	ldy     #$04
	jsr     staxysp
	cpx     #$00
	bne     L2072
	cmp     #$00
	bne     L2072
;
; Done |= VC->DoneMask;
;
	.dbg	line, "nachtm.c", 1127
	lda     (regbank+4,x)
	ora     _Done
	sta     _Done
;
; continue;
;
	.dbg	line, "nachtm.c", 1128
	jmp     L2063
;
; ++VC->Data;
;
	.dbg	line, "nachtm.c", 1130
L2072:	ldy     #$06
	lda     (regbank+4),y
	tax
	dey
	lda     (regbank+4),y
	clc
	adc     #$02
	bcc     L20C7
	inx
L20C7:	sta     (regbank+4),y
	iny
	txa
	sta     (regbank+4),y
;
; VC->Ticks = (Val & 0x7F) - 1;
;
	.dbg	line, "nachtm.c", 1133
	ldy     #$04
	lda     (sp),y
	and     #$7F
	sec
	sbc     #$01
	ldy     #$02
	sta     (regbank+4),y
;
; if (Val & 0x8000) {
;
	.dbg	line, "nachtm.c", 1136
	ldy     #$05
	lda     (sp),y
	and     #$80
;
; } else {
;
	.dbg	line, "nachtm.c", 1139
	jne     L20D6
;
; Tone = (Val >> 8) & 0x0F;
;
	.dbg	line, "nachtm.c", 1141
	ldy     #$05
	lda     (sp),y
	and     #$0F
	ldy     #$07
	sta     (sp),y
;
; Octave = ((Val >> 12) & 0x07) ^ 0x07;
;
	.dbg	line, "nachtm.c", 1142
	ldy     #$05
	lda     (sp),y
	lsr     a
	lsr     a
	lsr     a
	lsr     a
	and     #$07
	eor     #$07
	iny
	sta     (sp),y
;
; VC->Freq = FreqTab [Tone] >> Octave;
;
	.dbg	line, "nachtm.c", 1144
	lda     regbank+4
	ldx     regbank+4+1
	jsr     pushax
	ldy     #$09
	ldx     #$00
	lda     (sp),y
	stx     tmp1
	asl     a
	rol     tmp1
	asl     a
	rol     tmp1
	clc
	adc     #<(_FreqTab)
	tay
	lda     tmp1
	adc     #>(_FreqTab)
	tax
	tya
	jsr     ldeaxi
	jsr     pusheax
	ldy     #$0C
	lda     (sp),y
	jsr     tosshreax
	ldy     #$03
	jsr     staxspidx
;
; outw (&Voice->freq, VC->Freq);
;
	.dbg	line, "nachtm.c", 1146
	ldy     #$05
	jsr     pushwysp
	ldy     #$04
	lda     (regbank+4),y
	tax
	dey
	lda     (regbank+4),y
	ldy     #$00
	jsr     staxspidx
;
; outb (&Voice->ctrl, VC->Trigger);
;
	.dbg	line, "nachtm.c", 1148
	ldy     #$03
	lda     (sp),y
	tax
	dey
	lda     (sp),y
	clc
	adc     #$04
	bcc     L209A
	inx
L209A:	sta     ptr1
	stx     ptr1+1
	dey
	lda     (regbank+4),y
;
; } else {
;
	.dbg	line, "nachtm.c", 1150
	jmp     L20D2
;
; if (--(VC->Ticks) == 0) {
;
	.dbg	line, "nachtm.c", 1155
L2070:	lda     regbank+4+1
	sta     ptr1+1
	lda     regbank+4
	sta     ptr1
	lda     (ptr1),y
	sec
	sbc     #$01
	sta     (ptr1),y
	cmp     #$00
	bne     L2063
;
; outb (&Voice->ctrl, VC->Trigger & 0xFE);
;
	.dbg	line, "nachtm.c", 1156
L20D6:	ldy     #$03
	lda     (sp),y
	tax
	dey
	lda     (sp),y
	clc
	adc     #$04
	bcc     L20A4
	inx
L20A4:	sta     ptr1
	stx     ptr1+1
	dey
	lda     (regbank+4),y
	and     #$FE
L20D2:	dey
	sta     (ptr1),y
;
; for (I = 0; I < 3; ++I) {
;
	.dbg	line, "nachtm.c", 1110
L2063:	ldy     #$08
	clc
	lda     #$01
	adc     (sp),y
	jmp     L20C3
;
; while (Done != 0x07) {
;
	.dbg	line, "nachtm.c", 1090
L20C8:	lda     _Done
	cmp     #$07
	jne     L2054
;
; outb (&SID.v1.ctrl, 0x00);
;
	.dbg	line, "nachtm.c", 1163
L2055:	lda     #$00
	sta     $D404
;
; outb (&SID.v2.ctrl, 0x00);
;
	.dbg	line, "nachtm.c", 1164
	sta     $D40B
;
; outb (&SID.v3.ctrl, 0x00);
;
	.dbg	line, "nachtm.c", 1165
	sta     $D412
;
; clrscr ();
;
	.dbg	line, "nachtm.c", 1168
	jsr     _clrscr
;
; if (kbhit ()) {
;
	.dbg	line, "nachtm.c", 1171
	jsr     _kbhit
	tax
	beq     L20CA
;
; cgetc ();
;
	.dbg	line, "nachtm.c", 1172
	jsr     _cgetc
;
; return 0;
;
	.dbg	line, "nachtm.c", 1176
	ldx     #$00
	txa
;
; }
;
	.dbg	line, "nachtm.c", 1177
L20CA:	pha
	lda     (sp,x)
	sta     regbank+4
	ldy     #$01
	lda     (sp),y
	sta     regbank+5
	pla
	ldy     #$09
	jmp     addysp
	.dbg	line

.endproc

